; ModuleID = '/home/julian/workspace/devel/fpga_by_example/zedboard/DPR/src/IPs/zipFactory/src/hls/prj.hlsObj/solution/.autopilot/db/a.o.2.bc'
target datalayout = "e-p:64:64:64-i1:8:8-i8:8:8-i16:16:16-i32:32:32-i64:64:64-f32:32:32-f64:64:64-v64:64:64-v128:128:128-a0:0:64-s0:64:64-f80:128:128-n8:16:32:64-S128"
target triple = "x86_64-unknown-linux-gnu"

@wrapperAdmin.str = internal unnamed_addr constant [13 x i8] c"wrapperAdmin\00" ; [#uses=1 type=[13 x i8]*]
@llvm.global_ctors.1 = appending global [1 x void ()*] [void ()* @_GLOBAL__I_a] ; [#uses=0 type=[1 x void ()*]*]
@llvm.global_ctors.0 = appending global [1 x i32] [i32 65535] ; [#uses=0 type=[1 x i32]*]
@header.size = internal unnamed_addr global i16 0 ; [#uses=3 type=i16*]
@header.objectID = internal unnamed_addr global i8 0 ; [#uses=2 type=i8*]
@header.methodID = internal unnamed_addr global i8 0 ; [#uses=4 type=i8*]
@header.cb = internal unnamed_addr global i16 0   ; [#uses=5 type=i16*]
@conv64 = global double 0.000000e+00              ; [#uses=0 type=double*]
@conv32 = global float 0.000000e+00               ; [#uses=0 type=float*]
@bufferRESP_OC_V.str = internal unnamed_addr constant [13 x i8] c"bufferRESP.V\00" ; [#uses=1 type=[13 x i8]*]
@bufferRESP.V = internal global i32 0             ; [#uses=7 type=i32*]
@ap_fifo.str = internal unnamed_addr constant [8 x i8] c"ap_fifo\00" ; [#uses=2 type=[8 x i8]*]
@_status = internal unnamed_addr global i4 0      ; [#uses=3 type=i4*]
@.str3 = private unnamed_addr constant [13 x i8] c"ap_ctrl_none\00", align 1 ; [#uses=1 type=[13 x i8]*]
@.str2 = private unnamed_addr constant [8 x i8] c"ap_fifo\00", align 1 ; [#uses=11 type=[8 x i8]*]
@.str = private unnamed_addr constant [1 x i8] zeroinitializer, align 1 ; [#uses=87 type=[1 x i8]*]

; [#uses=0]
define void @wrapperAdmin(i32* %din.V, i32* %dout.V, i32* %pr.V.addr, i16* %pr.V.areaID, i1* %prDone.V) {
codeRepl:
  call void (...)* @_ssdm_op_SpecDataflowPipeline(i32 -1, [1 x i8]* @.str) nounwind, !dbg !280 ; [debug line = 125:1]
  call void (...)* @_ssdm_op_SpecInterface(i32* @bufferRESP.V, [8 x i8]* @ap_fifo.str, i32 0, i32 0, [1 x i8]* @.str, i32 0, i32 0, [1 x i8]* @.str, [1 x i8]* @.str, [1 x i8]* @.str, i32 2, i32 2, i32 16, i32 16, [1 x i8]* @.str, [1 x i8]* @.str)
  call void (...)* @_ssdm_op_SpecBitsMap(i32* %din.V), !map !342
  call void (...)* @_ssdm_op_SpecBitsMap(i32* %dout.V), !map !346
  call void (...)* @_ssdm_op_SpecBitsMap(i32* %pr.V.addr), !map !350
  call void (...)* @_ssdm_op_SpecBitsMap(i16* %pr.V.areaID), !map !354
  call void (...)* @_ssdm_op_SpecBitsMap(i1* %prDone.V), !map !358
  call void (...)* @_ssdm_op_SpecTopModule([13 x i8]* @wrapperAdmin.str) nounwind
  call void (...)* @_ssdm_op_SpecInterface(i1* %prDone.V, [8 x i8]* @.str2, i32 0, i32 0, [1 x i8]* @.str, i32 0, i32 0, [1 x i8]* @.str, [1 x i8]* @.str, [1 x i8]* @.str, i32 0, i32 0, i32 0, i32 0, [1 x i8]* @.str, [1 x i8]* @.str) nounwind, !dbg !280 ; [debug line = 125:1]
  call void (...)* @_ssdm_op_SpecInterface(i32* %pr.V.addr, i16* %pr.V.areaID, [8 x i8]* @.str2, i32 0, i32 0, [1 x i8]* @.str, i32 0, i32 0, [1 x i8]* @.str, [1 x i8]* @.str, [1 x i8]* @.str, i32 0, i32 0, i32 0, i32 0, [1 x i8]* @.str, [1 x i8]* @.str) nounwind, !dbg !280 ; [debug line = 125:1]
  call void (...)* @_ssdm_op_SpecInterface(i32* %dout.V, [8 x i8]* @.str2, i32 0, i32 0, [1 x i8]* @.str, i32 0, i32 0, [1 x i8]* @.str, [1 x i8]* @.str, [1 x i8]* @.str, i32 0, i32 0, i32 0, i32 0, [1 x i8]* @.str, [1 x i8]* @.str) nounwind, !dbg !280 ; [debug line = 125:1]
  call void (...)* @_ssdm_op_SpecInterface(i32* %din.V, [8 x i8]* @.str2, i32 0, i32 0, [1 x i8]* @.str, i32 0, i32 0, [1 x i8]* @.str, [1 x i8]* @.str, [1 x i8]* @.str, i32 0, i32 0, i32 0, i32 0, [1 x i8]* @.str, [1 x i8]* @.str) nounwind, !dbg !280 ; [debug line = 125:1]
  call void (...)* @_ssdm_op_SpecInterface(i32 0, [13 x i8]* @.str3, i32 0, i32 0, [1 x i8]* @.str, i32 0, i32 0, [1 x i8]* @.str, [1 x i8]* @.str, [1 x i8]* @.str, i32 0, i32 0, i32 0, i32 0, [1 x i8]* @.str, [1 x i8]* @.str) nounwind, !dbg !280 ; [debug line = 125:1]
  call void @llvm.dbg.declare(metadata !{i32* %din.V}, metadata !362), !dbg !364 ; [debug line = 121:40] [debug variable = din.V]
  call void @llvm.dbg.declare(metadata !{i32* %dout.V}, metadata !365), !dbg !367 ; [debug line = 122:33] [debug variable = dout.V]
  call void @llvm.dbg.declare(metadata !{i32* %pr.V.addr}, metadata !368), !dbg !374 ; [debug line = 123:26] [debug variable = pr.V.addr]
  call void @llvm.dbg.declare(metadata !{i16* %pr.V.areaID}, metadata !375), !dbg !374 ; [debug line = 123:26] [debug variable = pr.V.areaID]
  call void @llvm.dbg.declare(metadata !{i1* %prDone.V}, metadata !380), !dbg !384 ; [debug line = 123:48] [debug variable = prDone.V]
  call fastcc void @Block__proc11(i32* %din.V, i32* %dout.V, i1* %prDone.V, i32* %pr.V.addr, i16* %pr.V.areaID)
  ret void, !dbg !385                             ; [debug line = 152:1]
}

; [#uses=85]
declare void @llvm.dbg.value(metadata, i64, metadata) nounwind readnone

; [#uses=21]
declare void @llvm.dbg.declare(metadata, metadata) nounwind readnone

; [#uses=1]
define internal fastcc void @getRequestHead(i32* %src.V) {
entry:
  %tmp = alloca i32, align 4                      ; [#uses=2 type=i32*]
  %words32 = alloca [2 x i32], align 4            ; [#uses=3 type=[2 x i32]*]
  call void (...)* @_ssdm_op_SpecInterface(i32* %src.V, [8 x i8]* @.str2, i32 0, i32 0, [1 x i8]* @.str, i32 0, i32 0, [1 x i8]* @.str, [1 x i8]* @.str, [1 x i8]* @.str, i32 0, i32 0, i32 0, i32 0, [1 x i8]* @.str, [1 x i8]* @.str) nounwind
  call void @llvm.dbg.value(metadata !{i32* %src.V}, i64 0, metadata !386), !dbg !392 ; [debug line = 17:43] [debug variable = src.V]
  call void @llvm.dbg.declare(metadata !{[2 x i32]* %words32}, metadata !393), !dbg !398 ; [debug line = 19:7] [debug variable = words32]
  br label %0, !dbg !399                          ; [debug line = 21:15]

; <label>:0                                       ; preds = %2, %entry
  %it.i = phi i2 [ 0, %entry ], [ %it, %2 ]       ; [#uses=3 type=i2]
  %tmp.i = icmp eq i2 %it.i, -2, !dbg !399        ; [#uses=1 type=i1] [debug line = 21:15]
  %1 = call i32 (...)* @_ssdm_op_SpecLoopTripCount(i64 2, i64 2, i64 2) ; [#uses=0 type=i32]
  br i1 %tmp.i, label %getRequestHead.exit, label %2, !dbg !399 ; [debug line = 21:15]

; <label>:2                                       ; preds = %0
  call void @llvm.dbg.value(metadata !{i32* %src.V}, i64 0, metadata !401), !dbg !406 ; [debug line = 129:56@22:19] [debug variable = stream<unsigned int>.V]
  call void @llvm.dbg.declare(metadata !{i32* %tmp}, metadata !408) nounwind, !dbg !410 ; [debug line = 130:22@22:19] [debug variable = tmp]
  call void @_ssdm_op_IfRead.Stream.i32P.i32P(i32* %src.V, i32* %tmp) nounwind, !dbg !411 ; [debug line = 131:9@22:19]
  call void @llvm.dbg.value(metadata !{i32* %tmp}, i64 0, metadata !408), !dbg !412 ; [debug line = 132:9@22:19] [debug variable = tmp]
  call void @llvm.dbg.value(metadata !{i32* %tmp}, i64 0, metadata !408), !dbg !412 ; [debug line = 132:9@22:19] [debug variable = tmp]
  %tmp.43.load.i = load i32* %tmp, align 4, !dbg !412 ; [#uses=1 type=i32] [debug line = 132:9@22:19]
  %tmp.44.i = zext i2 %it.i to i64, !dbg !407     ; [#uses=1 type=i64] [debug line = 22:19]
  %words32.addr.2 = getelementptr inbounds [2 x i32]* %words32, i64 0, i64 %tmp.44.i, !dbg !407 ; [#uses=1 type=i32*] [debug line = 22:19]
  store i32 %tmp.43.load.i, i32* %words32.addr.2, align 4, !dbg !407 ; [debug line = 22:19]
  %it = add i2 %it.i, 1, !dbg !413                ; [#uses=1 type=i2] [debug line = 21:26]
  call void @llvm.dbg.value(metadata !{i2 %it}, i64 0, metadata !414), !dbg !413 ; [debug line = 21:26] [debug variable = it]
  br label %0, !dbg !413                          ; [debug line = 21:26]

getRequestHead.exit:                              ; preds = %0
  %words32.addr = getelementptr inbounds [2 x i32]* %words32, i64 0, i64 0, !dbg !415 ; [#uses=1 type=i32*] [debug line = 24:3]
  %words32.load = load i32* %words32.addr, align 4, !dbg !415 ; [#uses=2 type=i32] [debug line = 24:3]
  %words32.load.cast1.i = trunc i32 %words32.load to i16 ; [#uses=1 type=i16]
  %words32.load.cast.i = trunc i32 %words32.load to i24 ; [#uses=1 type=i24]
  %tmp..i = lshr i24 %words32.load.cast.i, 16, !dbg !416 ; [#uses=1 type=i24] [debug line = 25:3]
  %tmp.37.i = trunc i24 %tmp..i to i8, !dbg !416  ; [#uses=1 type=i8] [debug line = 25:3]
  store i8 %tmp.37.i, i8* @header.objectID, align 1, !dbg !416 ; [debug line = 25:3]
  %tmp.38.i = lshr i16 %words32.load.cast1.i, 8, !dbg !417 ; [#uses=1 type=i16] [debug line = 26:3]
  %tmp.39.i = trunc i16 %tmp.38.i to i8, !dbg !417 ; [#uses=1 type=i8] [debug line = 26:3]
  store i8 %tmp.39.i, i8* @header.methodID, align 1, !dbg !417 ; [debug line = 26:3]
  %words32.addr.1 = getelementptr inbounds [2 x i32]* %words32, i64 0, i64 1, !dbg !418 ; [#uses=1 type=i32*] [debug line = 28:3]
  %words32.load.1 = load i32* %words32.addr.1, align 4, !dbg !418 ; [#uses=2 type=i32] [debug line = 28:3]
  %tmp.40.i = lshr i32 %words32.load.1, 16, !dbg !418 ; [#uses=1 type=i32] [debug line = 28:3]
  %tmp.41.i = trunc i32 %tmp.40.i to i16, !dbg !418 ; [#uses=1 type=i16] [debug line = 28:3]
  store i16 %tmp.41.i, i16* @header.cb, align 2, !dbg !418 ; [debug line = 28:3]
  %tmp.42.i = trunc i32 %words32.load.1 to i16, !dbg !419 ; [#uses=1 type=i16] [debug line = 29:3]
  store i16 %tmp.42.i, i16* @header.size, align 2, !dbg !419 ; [debug line = 29:3]
  ret void
}

; [#uses=2]
define internal fastcc void @forward(i32* %src.V, i16 signext %size) noinline {
  call void (...)* @_ssdm_op_SpecInterface(i32* %src.V, [8 x i8]* @.str2, i32 0, i32 0, [1 x i8]* @.str, i32 0, i32 0, [1 x i8]* @.str, [1 x i8]* @.str, [1 x i8]* @.str, i32 0, i32 0, i32 0, i32 0, [1 x i8]* @.str, [1 x i8]* @.str) nounwind
  %tmp.1 = alloca i32, align 4                    ; [#uses=1 type=i32*]
  call void @llvm.dbg.value(metadata !{i32* %src.V}, i64 0, metadata !420), !dbg !426 ; [debug line = 6:36] [debug variable = src.V]
  call void @llvm.dbg.value(metadata !{i16 %size}, i64 0, metadata !427), !dbg !428 ; [debug line = 6:47] [debug variable = size]
  br label %1, !dbg !429                          ; [debug line = 9:3]

; <label>:1                                       ; preds = %2, %0
  %it = phi i16 [ 0, %0 ], [ %it.1, %2 ]          ; [#uses=2 type=i16]
  %tmp = icmp eq i16 %it, %size, !dbg !429        ; [#uses=1 type=i1] [debug line = 9:3]
  br i1 %tmp, label %3, label %2, !dbg !429       ; [debug line = 9:3]

; <label>:2                                       ; preds = %1
  call void @llvm.dbg.value(metadata !{i32* %src.V}, i64 0, metadata !401), !dbg !431 ; [debug line = 129:56@10:5] [debug variable = stream<unsigned int>.V]
  call void @llvm.dbg.declare(metadata !{i32* %tmp.1}, metadata !408) nounwind, !dbg !434 ; [debug line = 130:22@10:5] [debug variable = tmp]
  call void @_ssdm_op_IfRead.Stream.i32P.i32P(i32* %src.V, i32* %tmp.1) nounwind, !dbg !435 ; [debug line = 131:9@10:5]
  call void @llvm.dbg.value(metadata !{i32* %tmp.1}, i64 0, metadata !408), !dbg !436 ; [debug line = 132:9@10:5] [debug variable = tmp]
  %it.1 = add i16 %it, 1, !dbg !437               ; [#uses=1 type=i16] [debug line = 11:5]
  call void @llvm.dbg.value(metadata !{i16 %it.1}, i64 0, metadata !438), !dbg !437 ; [debug line = 11:5] [debug variable = it]
  br label %1, !dbg !439                          ; [debug line = 12:3]

; <label>:3                                       ; preds = %1
  ret void, !dbg !440                             ; [debug line = 13:1]
}

; [#uses=1]
declare void @_ssdm_op_SpecTopModule(...)

; [#uses=2]
declare i32 @_ssdm_op_SpecLoopTripCount(...)

; [#uses=14]
declare void @_ssdm_op_SpecInterface(...) nounwind

; [#uses=1]
declare void @_ssdm_op_SpecDataflowPipeline(...) nounwind

; [#uses=1]
declare i32 @_ssdm_op_SpecChannel(...)

; [#uses=5]
declare void @_ssdm_op_SpecBitsMap(...)

; [#uses=7]
declare void @_ssdm_op_IfWrite.Stream.i32P.i32P(i32*, i32*)

; [#uses=1]
declare void @"_ssdm_op_IfWrite.Stream.%struct.PRbus.7 = type { i32, i16 }P.%struct.PRbus.7 = type { i32, i16 }P"(i32*, i16*, i32*, i16*)

; [#uses=4]
declare void @_ssdm_op_IfRead.Stream.i32P.i32P(i32*, i32*)

; [#uses=1]
declare i1 @_ssdm_op_IfNbRead.Stream.i1P.i1P(i1*, i1*)

; [#uses=1]
declare i1 @_ssdm_op_IfCanRead.Stream.i32P(i32*)

; [#uses=1]
declare i32 @_ssdm_op_BitConcatenate.i32.i8.i8.i8.i8(i8, i8, i8, i8) nounwind readnone

; [#uses=2]
declare i32 @_ssdm_op_BitConcatenate.i32.i16.i16(i16, i16) nounwind readnone

; [#uses=1]
declare i16 @_ssdm_op_BitConcatenate.i16.i8.i8(i8, i8) nounwind readnone

; [#uses=1]
declare void @_GLOBAL__I_a() nounwind section ".text.startup"

; [#uses=1]
define internal fastcc void @Block__proc11(i32* %din.V, i32* %dout.V, i1* %prDone.V, i32* %pr.V.addr, i16* %pr.V.areaID) {
newFuncRoot:
  call void (...)* @_ssdm_op_SpecInterface(i32* %din.V, [8 x i8]* @.str2, i32 0, i32 0, [1 x i8]* @.str, i32 0, i32 0, [1 x i8]* @.str, [1 x i8]* @.str, [1 x i8]* @.str, i32 0, i32 0, i32 0, i32 0, [1 x i8]* @.str, [1 x i8]* @.str)
  call void (...)* @_ssdm_op_SpecInterface(i32* %dout.V, [8 x i8]* @.str2, i32 0, i32 0, [1 x i8]* @.str, i32 0, i32 0, [1 x i8]* @.str, [1 x i8]* @.str, [1 x i8]* @.str, i32 0, i32 0, i32 0, i32 0, [1 x i8]* @.str, [1 x i8]* @.str)
  call void (...)* @_ssdm_op_SpecInterface(i16* %pr.V.areaID, [8 x i8]* @.str2, i32 0, i32 0, [1 x i8]* @.str, i32 0, i32 0, [1 x i8]* @.str, [1 x i8]* @.str, [1 x i8]* @.str, i32 0, i32 0, i32 0, i32 0, [1 x i8]* @.str, [1 x i8]* @.str)
  call void (...)* @_ssdm_op_SpecInterface(i32* %pr.V.addr, [8 x i8]* @.str2, i32 0, i32 0, [1 x i8]* @.str, i32 0, i32 0, [1 x i8]* @.str, [1 x i8]* @.str, [1 x i8]* @.str, i32 0, i32 0, i32 0, i32 0, [1 x i8]* @.str, [1 x i8]* @.str)
  call void (...)* @_ssdm_op_SpecInterface(i1* %prDone.V, [8 x i8]* @.str2, i32 0, i32 0, [1 x i8]* @.str, i32 0, i32 0, [1 x i8]* @.str, [1 x i8]* @.str, [1 x i8]* @.str, i32 0, i32 0, i32 0, i32 0, [1 x i8]* @.str, [1 x i8]* @.str)
  call void (...)* @_ssdm_op_SpecInterface(i32* @bufferRESP.V, [8 x i8]* @ap_fifo.str, i32 0, i32 0, [1 x i8]* @.str, i32 0, i32 0, [1 x i8]* @.str, [1 x i8]* @.str, [1 x i8]* @.str, i32 2, i32 2, i32 16, i32 16, [1 x i8]* @.str, [1 x i8]* @.str)
  %tmp.2 = alloca i32, align 4                    ; [#uses=2 type=i32*]
  call void @llvm.dbg.declare(metadata !{i32* %tmp.2}, metadata !441) nounwind, !dbg !444 ; [debug line = 145:22@41:3@130:7] [debug variable = tmp]
  %tmp.3 = alloca i1, align 1                     ; [#uses=2 type=i1*]
  call void @llvm.dbg.declare(metadata !{i1* %tmp.3}, metadata !453) nounwind, !dbg !456 ; [debug line = 137:22@111:3@136:2] [debug variable = tmp]
  %words32 = alloca [2 x i32], align 4            ; [#uses=4 type=[2 x i32]*]
  call void @llvm.dbg.declare(metadata !{[2 x i32]* %words32}, metadata !465) nounwind, !dbg !468 ; [debug line = 89:7@80:3@132:7] [debug variable = words32]
  %tmp.4 = alloca i32, align 4                    ; [#uses=2 type=i32*]
  call void @llvm.dbg.declare(metadata !{i32* %tmp.4}, metadata !408) nounwind, !dbg !475 ; [debug line = 130:22@92:19@80:3@132:7] [debug variable = tmp]
  %tmp.7 = alloca i32, align 4                    ; [#uses=2 type=i32*]
  call void @llvm.dbg.declare(metadata !{i32* %tmp.7}, metadata !441) nounwind, !dbg !478 ; [debug line = 145:22@114:3@136:2] [debug variable = tmp]
  %tmp.8 = alloca i32, align 4                    ; [#uses=2 type=i32*]
  call void @llvm.dbg.declare(metadata !{i32* %tmp.8}, metadata !441) nounwind, !dbg !480 ; [debug line = 145:22@41:3@137:2] [debug variable = tmp]
  %tmp.10 = alloca i32, align 4                   ; [#uses=2 type=i32*]
  call void @llvm.dbg.declare(metadata !{i32* %tmp.10}, metadata !441) nounwind, !dbg !483 ; [debug line = 145:22@44:5@137:2] [debug variable = tmp]
  %tmp.11 = alloca i32, align 4                   ; [#uses=2 type=i32*]
  call void @llvm.dbg.declare(metadata !{i32* %tmp.11}, metadata !441) nounwind, !dbg !486 ; [debug line = 145:22@41:3@149:5] [debug variable = tmp]
  %tmp.14 = alloca i32, align 4                   ; [#uses=2 type=i32*]
  call void @llvm.dbg.declare(metadata !{i32* %tmp.14}, metadata !408) nounwind, !dbg !490 ; [debug line = 130:22@46:17@137:2] [debug variable = tmp]
  %tmp.15 = alloca i32, align 4                   ; [#uses=2 type=i32*]
  call void @llvm.dbg.declare(metadata !{i32* %tmp.15}, metadata !441) nounwind, !dbg !492 ; [debug line = 145:22@46:17@137:2] [debug variable = tmp]
  %tmp.16 = alloca i32, align 4                   ; [#uses=2 type=i32*]
  call void @llvm.dbg.declare(metadata !{i32* %tmp.16}, metadata !441) nounwind, !dbg !493 ; [debug line = 145:22@41:3@142:2] [debug variable = tmp]
  %tmp.addr = alloca i32, align 4                 ; [#uses=2 type=i32*]
  call void @llvm.dbg.declare(metadata !{i32* %tmp.addr}, metadata !497), !dbg !501 ; [debug line = 145:22@68:3@81:3@132:7] [debug variable = tmp.addr]
  %tmp.areaID = alloca i16, align 2               ; [#uses=2 type=i16*]
  call void @llvm.dbg.declare(metadata !{i16* %tmp.areaID}, metadata !508), !dbg !501 ; [debug line = 145:22@68:3@81:3@132:7] [debug variable = tmp.areaID]
  call fastcc void @getRequestHead(i32* %din.V), !dbg !509 ; [debug line = 126:3]
  %header.objectID.load = load i8* @header.objectID, align 1, !dbg !510 ; [#uses=1 type=i8] [debug line = 128:3]
  %tmp = icmp eq i8 %header.objectID.load, 2, !dbg !510 ; [#uses=1 type=i1] [debug line = 128:3]
  %0 = call i32 (...)* @_ssdm_op_SpecChannel([13 x i8]* @bufferRESP_OC_V.str, i32 1, [1 x i8]* @.str, [1 x i8]* @.str, i32 16, i32 16, i32* @bufferRESP.V, i32* @bufferRESP.V) ; [#uses=0 type=i32]
  br i1 %tmp, label %1, label %2, !dbg !510       ; [debug line = 128:3]

; <label>:1                                       ; preds = %newFuncRoot
  %header.methodID.load = load i8* @header.methodID, align 1, !dbg !511 ; [#uses=2 type=i8] [debug line = 129:5]
  %tmp.1 = icmp eq i8 %header.methodID.load, 1, !dbg !511 ; [#uses=1 type=i1] [debug line = 129:5]
  br i1 %tmp.1, label %3, label %4, !dbg !511     ; [debug line = 129:5]

; <label>:2                                       ; preds = %newFuncRoot
  %header.size.load = load i16* @header.size, align 2, !dbg !512 ; [#uses=1 type=i16] [debug line = 148:5]
  call fastcc void @forward(i32* %din.V, i16 signext %header.size.load), !dbg !512 ; [debug line = 148:5]
  call void @llvm.dbg.value(metadata !{i32* %dout.V}, i64 0, metadata !513), !dbg !515 ; [debug line = 34:42@149:5] [debug variable = dst.V]
  %header.cb.load = load i16* @header.cb, align 2, !dbg !516 ; [#uses=1 type=i16] [debug line = 40:3@149:5]
  %header.methodID.load.1 = load i8* @header.methodID, align 1, !dbg !516 ; [#uses=1 type=i8] [debug line = 40:3@149:5]
  %tmp.4.cast = zext i8 %header.methodID.load.1 to i16, !dbg !516 ; [#uses=1 type=i16] [debug line = 40:3@149:5]
  %tmp.5 = shl nuw i16 %tmp.4.cast, 8, !dbg !516  ; [#uses=1 type=i16] [debug line = 40:3@149:5]
  %tmp.6 = call i32 @_ssdm_op_BitConcatenate.i32.i16.i16(i16 %header.cb.load, i16 %tmp.5), !dbg !516 ; [#uses=1 type=i32] [debug line = 40:3@149:5]
  %words32.5 = or i32 %tmp.6, 3, !dbg !516        ; [#uses=1 type=i32] [debug line = 40:3@149:5]
  call void @llvm.dbg.value(metadata !{i32 %words32.5}, i64 0, metadata !517) nounwind, !dbg !516 ; [debug line = 40:3@149:5] [debug variable = words32]
  call void @llvm.dbg.value(metadata !{i32* %dout.V}, i64 0, metadata !518), !dbg !520 ; [debug line = 144:48@41:3@149:5] [debug variable = stream<unsigned int>.V]
  call void @llvm.dbg.value(metadata !{i32 %words32.5}, i64 0, metadata !521) nounwind, !dbg !522 ; [debug line = 145:31@41:3@149:5] [debug variable = tmp]
  call void @llvm.dbg.value(metadata !{i32 %words32.5}, i64 0, metadata !441), !dbg !522 ; [debug line = 145:31@41:3@149:5] [debug variable = tmp]
  call void @llvm.dbg.value(metadata !{i32 %words32.5}, i64 0, metadata !441), !dbg !522 ; [debug line = 145:31@41:3@149:5] [debug variable = tmp]
  store i32 %words32.5, i32* %tmp.11, align 4, !dbg !522 ; [debug line = 145:31@41:3@149:5]
  call void @_ssdm_op_IfWrite.Stream.i32P.i32P(i32* %dout.V, i32* %tmp.11) nounwind, !dbg !523 ; [debug line = 146:9@41:3@149:5]
  br label %.ret.exitStub

; <label>:3                                       ; preds = %1
  call void @llvm.dbg.value(metadata !{i32* %dout.V}, i64 0, metadata !524), !dbg !526 ; [debug line = 34:42@130:7] [debug variable = dst.V]
  %header.cb.load.1 = load i16* @header.cb, align 2, !dbg !527 ; [#uses=1 type=i16] [debug line = 40:3@130:7]
  %tmp.9 = zext i16 %header.cb.load.1 to i32, !dbg !527 ; [#uses=1 type=i32] [debug line = 40:3@130:7]
  %tmp. = shl nuw i32 %tmp.9, 16, !dbg !527       ; [#uses=1 type=i32] [debug line = 40:3@130:7]
  %words32.6 = or i32 %tmp., 257, !dbg !527       ; [#uses=1 type=i32] [debug line = 40:3@130:7]
  call void @llvm.dbg.value(metadata !{i32 %words32.6}, i64 0, metadata !528) nounwind, !dbg !527 ; [debug line = 40:3@130:7] [debug variable = words32]
  call void @llvm.dbg.value(metadata !{i32* %dout.V}, i64 0, metadata !529), !dbg !531 ; [debug line = 144:48@41:3@130:7] [debug variable = stream<unsigned int>.V]
  call void @llvm.dbg.value(metadata !{i32 %words32.6}, i64 0, metadata !532) nounwind, !dbg !533 ; [debug line = 145:31@41:3@130:7] [debug variable = tmp]
  call void @llvm.dbg.value(metadata !{i32 %words32.6}, i64 0, metadata !441), !dbg !533 ; [debug line = 145:31@41:3@130:7] [debug variable = tmp]
  call void @llvm.dbg.value(metadata !{i32 %words32.6}, i64 0, metadata !441), !dbg !533 ; [debug line = 145:31@41:3@130:7] [debug variable = tmp]
  store i32 %words32.6, i32* %tmp.2, align 4, !dbg !533 ; [debug line = 145:31@41:3@130:7]
  call void @_ssdm_op_IfWrite.Stream.i32P.i32P(i32* %dout.V, i32* %tmp.2) nounwind, !dbg !534 ; [debug line = 146:9@41:3@130:7]
  call void @llvm.dbg.value(metadata !{i32* %din.V}, i64 0, metadata !535), !dbg !537 ; [debug line = 77:46@132:7] [debug variable = src.V]
  call void @llvm.dbg.value(metadata !{i32* %pr.V.addr}, i64 0, metadata !538), !dbg !541 ; [debug line = 78:25@132:7] [debug variable = pr.V.addr]
  call void @llvm.dbg.value(metadata !{i16* %pr.V.areaID}, i64 0, metadata !542), !dbg !541 ; [debug line = 78:25@132:7] [debug variable = pr.V.areaID]
  call void @llvm.dbg.value(metadata !{i32* %din.V}, i64 0, metadata !544), !dbg !546 ; [debug line = 87:53@80:3@132:7] [debug variable = src.V]
  br label %5, !dbg !547                          ; [debug line = 91:15@80:3@132:7]

; <label>:4                                       ; preds = %1
  %tmp.12 = icmp eq i8 %header.methodID.load, 2, !dbg !548 ; [#uses=1 type=i1] [debug line = 135:7]
  br i1 %tmp.12, label %7, label %8, !dbg !548    ; [debug line = 135:7]

; <label>:5                                       ; preds = %9, %3
  %it.0.i.i = phi i2 [ 0, %3 ], [ %it, %9 ]       ; [#uses=3 type=i2]
  %tmp.13 = icmp eq i2 %it.0.i.i, -2, !dbg !547   ; [#uses=1 type=i1] [debug line = 91:15@80:3@132:7]
  %6 = call i32 (...)* @_ssdm_op_SpecLoopTripCount(i64 2, i64 2, i64 2) ; [#uses=0 type=i32]
  br i1 %tmp.13, label %wrapper_newObject.exit, label %9, !dbg !547 ; [debug line = 91:15@80:3@132:7]

; <label>:7                                       ; preds = %4
  call void @llvm.dbg.value(metadata !{i1* %prDone.V}, i64 0, metadata !549), !dbg !552 ; [debug line = 108:35@136:2] [debug variable = prDone.V]
  call void @llvm.dbg.value(metadata !{i1* %prDone.V}, i64 0, metadata !553), !dbg !557 ; [debug line = 136:48@111:3@136:2] [debug variable = stream<bool>.V]
  %empty_n.i.0.i = call i1 @_ssdm_op_IfNbRead.Stream.i1P.i1P(i1* %prDone.V, i1* %tmp.3) nounwind, !dbg !558 ; [#uses=0 type=i1] [debug line = 138:24@111:3@136:2]
  call void @llvm.dbg.value(metadata !{i1 %empty_n.i.0.i}, i64 0, metadata !559) nounwind, !dbg !558 ; [debug line = 138:24@111:3@136:2] [debug variable = empty_n]
  call void @llvm.dbg.value(metadata !{i1* %tmp.3}, i64 0, metadata !560) nounwind, !dbg !561 ; [debug line = 139:9@111:3@136:2] [debug variable = tmp]
  call void @llvm.dbg.value(metadata !{i1* %tmp.3}, i64 0, metadata !453), !dbg !561 ; [debug line = 139:9@111:3@136:2] [debug variable = tmp]
  call void @llvm.dbg.value(metadata !{i1* %tmp.3}, i64 0, metadata !453), !dbg !561 ; [debug line = 139:9@111:3@136:2] [debug variable = tmp]
  %aux = load i1* %tmp.3, align 1, !dbg !561      ; [#uses=1 type=i1] [debug line = 139:9@111:3@136:2]
  call void @llvm.dbg.value(metadata !{i1 %aux}, i64 0, metadata !562) nounwind, !dbg !561 ; [debug line = 139:9@111:3@136:2] [debug variable = aux]
  br i1 %aux, label %10, label %wrapper_status.exit, !dbg !563 ; [debug line = 112:3@136:2]

; <label>:8                                       ; preds = %4
  %header.size.load.1 = load i16* @header.size, align 2, !dbg !564 ; [#uses=1 type=i16] [debug line = 141:2]
  call fastcc void @forward(i32* %din.V, i16 signext %header.size.load.1), !dbg !564 ; [debug line = 141:2]
  call void @llvm.dbg.value(metadata !{i32* %dout.V}, i64 0, metadata !565), !dbg !567 ; [debug line = 34:42@142:2] [debug variable = dst.V]
  %header.cb.load.2 = load i16* @header.cb, align 2, !dbg !568 ; [#uses=1 type=i16] [debug line = 40:3@142:2]
  %header.methodID.load.2 = load i8* @header.methodID, align 1, !dbg !568 ; [#uses=1 type=i8] [debug line = 40:3@142:2]
  %tmp.17.cast = zext i8 %header.methodID.load.2 to i16, !dbg !568 ; [#uses=1 type=i16] [debug line = 40:3@142:2]
  %tmp.18 = shl nuw i16 %tmp.17.cast, 8, !dbg !568 ; [#uses=1 type=i16] [debug line = 40:3@142:2]
  %tmp.19 = call i32 @_ssdm_op_BitConcatenate.i32.i16.i16(i16 %header.cb.load.2, i16 %tmp.18), !dbg !568 ; [#uses=1 type=i32] [debug line = 40:3@142:2]
  %words32.7 = or i32 %tmp.19, 3, !dbg !568       ; [#uses=1 type=i32] [debug line = 40:3@142:2]
  call void @llvm.dbg.value(metadata !{i32 %words32.7}, i64 0, metadata !569) nounwind, !dbg !568 ; [debug line = 40:3@142:2] [debug variable = words32]
  call void @llvm.dbg.value(metadata !{i32* %dout.V}, i64 0, metadata !570), !dbg !572 ; [debug line = 144:48@41:3@142:2] [debug variable = stream<unsigned int>.V]
  call void @llvm.dbg.value(metadata !{i32 %words32.7}, i64 0, metadata !573) nounwind, !dbg !574 ; [debug line = 145:31@41:3@142:2] [debug variable = tmp]
  call void @llvm.dbg.value(metadata !{i32 %words32.7}, i64 0, metadata !441), !dbg !574 ; [debug line = 145:31@41:3@142:2] [debug variable = tmp]
  call void @llvm.dbg.value(metadata !{i32 %words32.7}, i64 0, metadata !441), !dbg !574 ; [debug line = 145:31@41:3@142:2] [debug variable = tmp]
  store i32 %words32.7, i32* %tmp.16, align 4, !dbg !574 ; [debug line = 145:31@41:3@142:2]
  call void @_ssdm_op_IfWrite.Stream.i32P.i32P(i32* %dout.V, i32* %tmp.16) nounwind, !dbg !575 ; [debug line = 146:9@41:3@142:2]
  br label %buildResponse.exit

wrapper_newObject.exit:                           ; preds = %5
  %tmp.23 = bitcast [2 x i32]* %words32 to i8*, !dbg !576 ; [#uses=3 type=i8*] [debug line = 94:46@80:3@132:7]
  %ptr = getelementptr inbounds i8* %tmp.23, i64 1, !dbg !577 ; [#uses=1 type=i8*] [debug line = 95:25@80:3@132:7]
  call void @llvm.dbg.value(metadata !{i8* %ptr}, i64 0, metadata !578) nounwind, !dbg !577 ; [debug line = 95:25@80:3@132:7] [debug variable = ptr]
  %words32.addr = getelementptr [2 x i32]* %words32, i64 0, i64 0 ; [#uses=1 type=i32*]
  %words32.load = load i32* %words32.addr, align 4, !dbg !577 ; [#uses=1 type=i32] [debug line = 95:25@80:3@132:7]
  %c1.assign = trunc i32 %words32.load to i8, !dbg !577 ; [#uses=1 type=i8] [debug line = 95:25@80:3@132:7]
  %ptr.1 = getelementptr inbounds i8* %tmp.23, i64 2, !dbg !577 ; [#uses=1 type=i8*] [debug line = 95:25@80:3@132:7]
  call void @llvm.dbg.value(metadata !{i8* %ptr.1}, i64 0, metadata !578) nounwind, !dbg !577 ; [debug line = 95:25@80:3@132:7] [debug variable = ptr]
  %c2.assign = load i8* %ptr, align 1, !dbg !577  ; [#uses=1 type=i8] [debug line = 95:25@80:3@132:7]
  %ptr.2 = getelementptr inbounds i8* %tmp.23, i64 3, !dbg !577 ; [#uses=1 type=i8*] [debug line = 95:25@80:3@132:7]
  call void @llvm.dbg.value(metadata !{i8* %ptr.2}, i64 0, metadata !578) nounwind, !dbg !577 ; [debug line = 95:25@80:3@132:7] [debug variable = ptr]
  %c3.assign = load i8* %ptr.1, align 2, !dbg !577 ; [#uses=1 type=i8] [debug line = 95:25@80:3@132:7]
  %words32.addr.1 = getelementptr inbounds [2 x i32]* %words32, i64 0, i64 1, !dbg !577 ; [#uses=1 type=i32*] [debug line = 95:25@80:3@132:7]
  %c4.assign = load i8* %ptr.2, align 1, !dbg !577 ; [#uses=1 type=i8] [debug line = 95:25@80:3@132:7]
  call void @llvm.dbg.value(metadata !{i8 %c1.assign}, i64 0, metadata !580) nounwind, !dbg !585 ; [debug line = 27:22@95:25@80:3@132:7] [debug variable = c1]
  call void @llvm.dbg.value(metadata !{i8 %c2.assign}, i64 0, metadata !586) nounwind, !dbg !587 ; [debug line = 27:40@95:25@80:3@132:7] [debug variable = c2]
  call void @llvm.dbg.value(metadata !{i8 %c3.assign}, i64 0, metadata !588) nounwind, !dbg !589 ; [debug line = 28:17@95:25@80:3@132:7] [debug variable = c3]
  call void @llvm.dbg.value(metadata !{i8 %c4.assign}, i64 0, metadata !590) nounwind, !dbg !591 ; [debug line = 28:35@95:25@80:3@132:7] [debug variable = c4]
  %aux.3 = call i32 @_ssdm_op_BitConcatenate.i32.i8.i8.i8.i8(i8 %c4.assign, i8 %c3.assign, i8 %c2.assign, i8 %c1.assign) nounwind, !dbg !592 ; [#uses=1 type=i32] [debug line = 31:3@95:25@80:3@132:7]
  call void @llvm.dbg.value(metadata !{i32 %aux.3}, i64 0, metadata !594) nounwind, !dbg !592 ; [debug line = 31:3@95:25@80:3@132:7] [debug variable = aux]
  %words32.load.1 = load i32* %words32.addr.1, align 4, !dbg !595 ; [#uses=2 type=i32] [debug line = 96:19@80:3@132:7]
  %words32.load.1.cast = trunc i32 %words32.load.1 to i24 ; [#uses=1 type=i24]
  %tmp.24 = lshr i24 %words32.load.1.cast, 16     ; [#uses=1 type=i24]
  %c1.assign.1 = trunc i24 %tmp.24 to i8, !dbg !596 ; [#uses=1 type=i8] [debug line = 97:27@80:3@132:7]
  %tmp.26 = lshr i32 %words32.load.1, 24          ; [#uses=1 type=i32]
  %c2.assign.1 = trunc i32 %tmp.26 to i8, !dbg !596 ; [#uses=1 type=i8] [debug line = 97:27@80:3@132:7]
  call void @llvm.dbg.value(metadata !{i8 %c1.assign.1}, i64 0, metadata !597) nounwind, !dbg !601 ; [debug line = 19:24@97:27@80:3@132:7] [debug variable = c1]
  call void @llvm.dbg.value(metadata !{i8 %c2.assign.1}, i64 0, metadata !602) nounwind, !dbg !603 ; [debug line = 19:42@97:27@80:3@132:7] [debug variable = c2]
  %aux.4 = call i16 @_ssdm_op_BitConcatenate.i16.i8.i8(i8 %c2.assign.1, i8 %c1.assign.1) nounwind ; [#uses=1 type=i16]
  call void @llvm.dbg.value(metadata !{i16 %aux.4}, i64 0, metadata !604) nounwind, !dbg !606 ; [debug line = 22:3@97:27@80:3@132:7] [debug variable = aux]
  call void @llvm.dbg.value(metadata !{i32* %pr.V.addr}, i64 0, metadata !607), !dbg !609 ; [debug line = 63:31@81:3@132:7] [debug variable = pr.V.addr]
  call void @llvm.dbg.value(metadata !{i16* %pr.V.areaID}, i64 0, metadata !610), !dbg !609 ; [debug line = 63:31@81:3@132:7] [debug variable = pr.V.areaID]
  call void @llvm.dbg.value(metadata !{i32 %aux.3}, i64 0, metadata !611) nounwind, !dbg !612 ; [debug line = 63:39@81:3@132:7] [debug variable = addr]
  call void @llvm.dbg.value(metadata !{i16 %aux.4}, i64 0, metadata !613) nounwind, !dbg !614 ; [debug line = 63:51@81:3@132:7] [debug variable = areaID]
  call void @llvm.dbg.value(metadata !{i16 %aux.4}, i64 0, metadata !615) nounwind, !dbg !618 ; [debug line = 66:3@81:3@132:7] [debug variable = aux.areaID]
  call void @llvm.dbg.value(metadata !{i32 %aux.3}, i64 0, metadata !619) nounwind, !dbg !620 ; [debug line = 67:3@81:3@132:7] [debug variable = aux.addr]
  call void @llvm.dbg.value(metadata !{i32* %pr.V.addr}, i64 0, metadata !621), !dbg !625 ; [debug line = 144:48@68:3@81:3@132:7] [debug variable = stream<PRbus>.V.addr]
  call void @llvm.dbg.value(metadata !{i16* %pr.V.areaID}, i64 0, metadata !626), !dbg !625 ; [debug line = 144:48@68:3@81:3@132:7] [debug variable = stream<PRbus>.V.areaID]
  call void @llvm.dbg.value(metadata !{i32 %aux.3}, i64 0, metadata !497), !dbg !628 ; [debug line = 145:31@68:3@81:3@132:7] [debug variable = tmp.addr]
  call void @llvm.dbg.value(metadata !{i32 %aux.3}, i64 0, metadata !497), !dbg !628 ; [debug line = 145:31@68:3@81:3@132:7] [debug variable = tmp.addr]
  store i32 %aux.3, i32* %tmp.addr, align 4, !dbg !628 ; [debug line = 145:31@68:3@81:3@132:7]
  call void @llvm.dbg.value(metadata !{i16 %aux.4}, i64 0, metadata !508), !dbg !628 ; [debug line = 145:31@68:3@81:3@132:7] [debug variable = tmp.areaID]
  call void @llvm.dbg.value(metadata !{i16 %aux.4}, i64 0, metadata !508), !dbg !628 ; [debug line = 145:31@68:3@81:3@132:7] [debug variable = tmp.areaID]
  store i16 %aux.4, i16* %tmp.areaID, align 4, !dbg !628 ; [debug line = 145:31@68:3@81:3@132:7]
  call void @"_ssdm_op_IfWrite.Stream.%struct.PRbus.7 = type { i32, i16 }P.%struct.PRbus.7 = type { i32, i16 }P"(i32* %pr.V.addr, i16* %pr.V.areaID, i32* %tmp.addr, i16* %tmp.areaID), !dbg !629 ; [debug line = 146:9@68:3@81:3@132:7]
  store i4 2, i4* @_status, align 1, !dbg !630    ; [debug line = 82:3@132:7]
  br label %13, !dbg !631                         ; [debug line = 133:5]

; <label>:9                                       ; preds = %5
  call void @llvm.dbg.value(metadata !{i32* %din.V}, i64 0, metadata !632), !dbg !634 ; [debug line = 129:56@92:19@80:3@132:7] [debug variable = stream<unsigned int>.V]
  call void @_ssdm_op_IfRead.Stream.i32P.i32P(i32* %din.V, i32* %tmp.4) nounwind, !dbg !635 ; [debug line = 131:9@92:19@80:3@132:7]
  call void @llvm.dbg.value(metadata !{i32* %tmp.4}, i64 0, metadata !636) nounwind, !dbg !637 ; [debug line = 132:9@92:19@80:3@132:7] [debug variable = tmp]
  call void @llvm.dbg.value(metadata !{i32* %tmp.4}, i64 0, metadata !408), !dbg !637 ; [debug line = 132:9@92:19@80:3@132:7] [debug variable = tmp]
  call void @llvm.dbg.value(metadata !{i32* %tmp.4}, i64 0, metadata !408), !dbg !637 ; [debug line = 132:9@92:19@80:3@132:7] [debug variable = tmp]
  %tmp.4.load = load i32* %tmp.4, align 4, !dbg !637 ; [#uses=1 type=i32] [debug line = 132:9@92:19@80:3@132:7]
  %tmp.28 = zext i2 %it.0.i.i to i64, !dbg !476   ; [#uses=1 type=i64] [debug line = 92:19@80:3@132:7]
  %words32.addr.2 = getelementptr inbounds [2 x i32]* %words32, i64 0, i64 %tmp.28, !dbg !476 ; [#uses=1 type=i32*] [debug line = 92:19@80:3@132:7]
  store i32 %tmp.4.load, i32* %words32.addr.2, align 4, !dbg !476 ; [debug line = 92:19@80:3@132:7]
  %it = add i2 %it.0.i.i, 1, !dbg !638            ; [#uses=1 type=i2] [debug line = 91:26@80:3@132:7]
  call void @llvm.dbg.value(metadata !{i2 %it}, i64 0, metadata !639) nounwind, !dbg !638 ; [debug line = 91:26@80:3@132:7] [debug variable = it]
  br label %5, !dbg !638                          ; [debug line = 91:26@80:3@132:7]

; <label>:10                                      ; preds = %7
  store i4 1, i4* @_status, align 1, !dbg !640    ; [debug line = 113:5@136:2]
  br label %wrapper_status.exit, !dbg !640        ; [debug line = 113:5@136:2]

wrapper_status.exit:                              ; preds = %10, %7
  %_status.load = load i4* @_status, align 1      ; [#uses=1 type=i4]
  %tmp.22 = zext i4 %_status.load to i32          ; [#uses=1 type=i32]
  call void @llvm.dbg.value(metadata !{i32 %tmp.22}, i64 0, metadata !641) nounwind, !dbg !642 ; [debug line = 145:31@114:3@136:2] [debug variable = tmp]
  call void @llvm.dbg.value(metadata !{i32 %tmp.22}, i64 0, metadata !441), !dbg !642 ; [debug line = 145:31@114:3@136:2] [debug variable = tmp]
  call void @llvm.dbg.value(metadata !{i32 %tmp.22}, i64 0, metadata !441), !dbg !642 ; [debug line = 145:31@114:3@136:2] [debug variable = tmp]
  store i32 %tmp.22, i32* %tmp.7, align 4, !dbg !642 ; [debug line = 145:31@114:3@136:2]
  call void @_ssdm_op_IfWrite.Stream.i32P.i32P(i32* @bufferRESP.V, i32* %tmp.7) nounwind, !dbg !643 ; [debug line = 146:9@114:3@136:2]
  call void @llvm.dbg.value(metadata !{i32* %dout.V}, i64 0, metadata !644), !dbg !646 ; [debug line = 34:42@137:2] [debug variable = dst.V]
  %header.cb.load.3 = load i16* @header.cb, align 2, !dbg !647 ; [#uses=1 type=i16] [debug line = 40:3@137:2]
  %tmp.30 = zext i16 %header.cb.load.3 to i32, !dbg !647 ; [#uses=1 type=i32] [debug line = 40:3@137:2]
  %tmp.31 = shl nuw i32 %tmp.30, 16, !dbg !647    ; [#uses=1 type=i32] [debug line = 40:3@137:2]
  %words32.8 = or i32 %tmp.31, 517, !dbg !647     ; [#uses=1 type=i32] [debug line = 40:3@137:2]
  call void @llvm.dbg.value(metadata !{i32 %words32.8}, i64 0, metadata !648) nounwind, !dbg !647 ; [debug line = 40:3@137:2] [debug variable = words32]
  call void @llvm.dbg.value(metadata !{i32* %dout.V}, i64 0, metadata !649), !dbg !651 ; [debug line = 144:48@41:3@137:2] [debug variable = stream<unsigned int>.V]
  call void @llvm.dbg.value(metadata !{i32 %words32.8}, i64 0, metadata !652) nounwind, !dbg !653 ; [debug line = 145:31@41:3@137:2] [debug variable = tmp]
  call void @llvm.dbg.value(metadata !{i32 %words32.8}, i64 0, metadata !441), !dbg !653 ; [debug line = 145:31@41:3@137:2] [debug variable = tmp]
  call void @llvm.dbg.value(metadata !{i32 %words32.8}, i64 0, metadata !441), !dbg !653 ; [debug line = 145:31@41:3@137:2] [debug variable = tmp]
  store i32 %words32.8, i32* %tmp.8, align 4, !dbg !653 ; [debug line = 145:31@41:3@137:2]
  call void @_ssdm_op_IfWrite.Stream.i32P.i32P(i32* %dout.V, i32* %tmp.8) nounwind, !dbg !654 ; [debug line = 146:9@41:3@137:2]
  call void @llvm.dbg.value(metadata !{i32* %dout.V}, i64 0, metadata !655), !dbg !657 ; [debug line = 144:48@44:5@137:2] [debug variable = stream<unsigned int>.V]
  store i32 131073, i32* %tmp.10, align 4, !dbg !658 ; [debug line = 145:31@44:5@137:2]
  call void @_ssdm_op_IfWrite.Stream.i32P.i32P(i32* %dout.V, i32* %tmp.10) nounwind, !dbg !659 ; [debug line = 146:9@44:5@137:2]
  br label %11, !dbg !660                         ; [debug line = 45:5@137:2]

; <label>:11                                      ; preds = %12, %wrapper_status.exit
  %tmp.27 = call i1 @_ssdm_op_IfCanRead.Stream.i32P(i32* @bufferRESP.V) nounwind, !dbg !661 ; [#uses=1 type=i1] [debug line = 113:20@45:13@137:2]
  call void @llvm.dbg.value(metadata !{i1 %tmp.27}, i64 0, metadata !665) nounwind, !dbg !661 ; [debug line = 113:20@45:13@137:2] [debug variable = tmp]
  br i1 %tmp.27, label %12, label %buildResponse.exit.loopexit, !dbg !664 ; [debug line = 45:13@137:2]

.ret.exitStub:                                    ; preds = %13, %2
  ret void

; <label>:12                                      ; preds = %11
  call void @_ssdm_op_IfRead.Stream.i32P.i32P(i32* @bufferRESP.V, i32* %tmp.14) nounwind, !dbg !666 ; [debug line = 131:9@46:17@137:2]
  call void @llvm.dbg.value(metadata !{i32* %tmp.14}, i64 0, metadata !667) nounwind, !dbg !668 ; [debug line = 132:9@46:17@137:2] [debug variable = tmp]
  call void @llvm.dbg.value(metadata !{i32* %tmp.14}, i64 0, metadata !408), !dbg !668 ; [debug line = 132:9@46:17@137:2] [debug variable = tmp]
  call void @llvm.dbg.value(metadata !{i32* %tmp.14}, i64 0, metadata !408), !dbg !668 ; [debug line = 132:9@46:17@137:2] [debug variable = tmp]
  %tmp.29 = load i32* %tmp.14, align 4, !dbg !668 ; [#uses=1 type=i32] [debug line = 132:9@46:17@137:2]
  call void @llvm.dbg.value(metadata !{i32* %dout.V}, i64 0, metadata !669), !dbg !671 ; [debug line = 144:48@46:17@137:2] [debug variable = stream<unsigned int>.V]
  call void @llvm.dbg.value(metadata !{i32 %tmp.29}, i64 0, metadata !672) nounwind, !dbg !673 ; [debug line = 145:31@46:17@137:2] [debug variable = tmp]
  call void @llvm.dbg.value(metadata !{i32 %tmp.29}, i64 0, metadata !441), !dbg !673 ; [debug line = 145:31@46:17@137:2] [debug variable = tmp]
  call void @llvm.dbg.value(metadata !{i32 %tmp.29}, i64 0, metadata !441), !dbg !673 ; [debug line = 145:31@46:17@137:2] [debug variable = tmp]
  store i32 %tmp.29, i32* %tmp.15, align 4, !dbg !673 ; [debug line = 145:31@46:17@137:2]
  call void @_ssdm_op_IfWrite.Stream.i32P.i32P(i32* %dout.V, i32* %tmp.15) nounwind, !dbg !674 ; [debug line = 146:9@46:17@137:2]
  br label %11, !dbg !491                         ; [debug line = 46:17@137:2]

buildResponse.exit.loopexit:                      ; preds = %11
  br label %buildResponse.exit

buildResponse.exit:                               ; preds = %buildResponse.exit.loopexit, %8
  br label %13

; <label>:13                                      ; preds = %buildResponse.exit, %wrapper_newObject.exit
  br label %.ret.exitStub, !dbg !675              ; [debug line = 146:3]
}

!opencl.kernels = !{!0, !7, !13, !19, !23, !25, !7, !13, !27, !29, !31, !34, !40, !43, !46, !52, !34, !43, !55, !58, !61, !64, !64, !70, !64, !64, !64, !64, !64, !64, !64}
!hls.encrypted.func = !{}
!llvm.map.gv = !{!72, !79, !84}
!llvm.dbg.cu = !{!89}

!0 = metadata !{null, metadata !1, metadata !2, metadata !3, metadata !4, metadata !5, metadata !6}
!1 = metadata !{metadata !"kernel_arg_addr_space", i32 0, i32 0}
!2 = metadata !{metadata !"kernel_arg_access_qual", metadata !"none", metadata !"none"}
!3 = metadata !{metadata !"kernel_arg_type", metadata !"uchar", metadata !"uchar"}
!4 = metadata !{metadata !"kernel_arg_type_qual", metadata !"", metadata !""}
!5 = metadata !{metadata !"kernel_arg_name", metadata !"c1", metadata !"c2"}
!6 = metadata !{metadata !"reqd_work_group_size", i32 1, i32 1, i32 1}
!7 = metadata !{null, metadata !8, metadata !9, metadata !10, metadata !11, metadata !12, metadata !6}
!8 = metadata !{metadata !"kernel_arg_addr_space", i32 0, i32 0, i32 0, i32 0}
!9 = metadata !{metadata !"kernel_arg_access_qual", metadata !"none", metadata !"none", metadata !"none", metadata !"none"}
!10 = metadata !{metadata !"kernel_arg_type", metadata !"uchar", metadata !"uchar", metadata !"uchar", metadata !"uchar"}
!11 = metadata !{metadata !"kernel_arg_type_qual", metadata !"", metadata !"", metadata !"", metadata !""}
!12 = metadata !{metadata !"kernel_arg_name", metadata !"c1", metadata !"c2", metadata !"c3", metadata !"c4"}
!13 = metadata !{null, metadata !14, metadata !15, metadata !16, metadata !17, metadata !18, metadata !6}
!14 = metadata !{metadata !"kernel_arg_addr_space", i32 0, i32 0, i32 0, i32 0, i32 0, i32 0, i32 0, i32 0}
!15 = metadata !{metadata !"kernel_arg_access_qual", metadata !"none", metadata !"none", metadata !"none", metadata !"none", metadata !"none", metadata !"none", metadata !"none", metadata !"none"}
!16 = metadata !{metadata !"kernel_arg_type", metadata !"uchar", metadata !"uchar", metadata !"uchar", metadata !"uchar", metadata !"uchar", metadata !"uchar", metadata !"uchar", metadata !"uchar"}
!17 = metadata !{metadata !"kernel_arg_type_qual", metadata !"", metadata !"", metadata !"", metadata !"", metadata !"", metadata !"", metadata !"", metadata !""}
!18 = metadata !{metadata !"kernel_arg_name", metadata !"c1", metadata !"c2", metadata !"c3", metadata !"c4", metadata !"c5", metadata !"c6", metadata !"c7", metadata !"c8"}
!19 = metadata !{null, metadata !20, metadata !2, metadata !21, metadata !4, metadata !22, metadata !6}
!20 = metadata !{metadata !"kernel_arg_addr_space", i32 0, i32 1}
!21 = metadata !{metadata !"kernel_arg_type", metadata !"short", metadata !"uchar*"}
!22 = metadata !{metadata !"kernel_arg_name", metadata !"n", metadata !"bytes"}
!23 = metadata !{null, metadata !20, metadata !2, metadata !24, metadata !4, metadata !22, metadata !6}
!24 = metadata !{metadata !"kernel_arg_type", metadata !"int", metadata !"uchar*"}
!25 = metadata !{null, metadata !20, metadata !2, metadata !26, metadata !4, metadata !22, metadata !6}
!26 = metadata !{metadata !"kernel_arg_type", metadata !"long long", metadata !"uchar*"}
!27 = metadata !{null, metadata !20, metadata !2, metadata !28, metadata !4, metadata !22, metadata !6}
!28 = metadata !{metadata !"kernel_arg_type", metadata !"float", metadata !"uchar*"}
!29 = metadata !{null, metadata !20, metadata !2, metadata !30, metadata !4, metadata !22, metadata !6}
!30 = metadata !{metadata !"kernel_arg_type", metadata !"double", metadata !"uchar*"}
!31 = metadata !{null, metadata !1, metadata !2, metadata !32, metadata !4, metadata !33, metadata !6}
!32 = metadata !{metadata !"kernel_arg_type", metadata !"hls::stream<uint> &", metadata !"short"}
!33 = metadata !{metadata !"kernel_arg_name", metadata !"src", metadata !"size"}
!34 = metadata !{null, metadata !35, metadata !36, metadata !37, metadata !38, metadata !39, metadata !6}
!35 = metadata !{metadata !"kernel_arg_addr_space", i32 0}
!36 = metadata !{metadata !"kernel_arg_access_qual", metadata !"none"}
!37 = metadata !{metadata !"kernel_arg_type", metadata !"hls::stream<uint> &"}
!38 = metadata !{metadata !"kernel_arg_type_qual", metadata !""}
!39 = metadata !{metadata !"kernel_arg_name", metadata !"src"}
!40 = metadata !{null, metadata !8, metadata !9, metadata !41, metadata !11, metadata !42, metadata !6}
!41 = metadata !{metadata !"kernel_arg_type", metadata !"hls::stream<uint> &", metadata !"ushort", metadata !"ushort", metadata !"uchar"}
!42 = metadata !{metadata !"kernel_arg_name", metadata !"dst", metadata !"objID", metadata !"size", metadata !"flags"}
!43 = metadata !{null, metadata !35, metadata !36, metadata !44, metadata !38, metadata !45, metadata !6}
!44 = metadata !{metadata !"kernel_arg_type", metadata !"hls::stream<_Bool> &"}
!45 = metadata !{metadata !"kernel_arg_name", metadata !"prDone"}
!46 = metadata !{null, metadata !47, metadata !48, metadata !49, metadata !50, metadata !51, metadata !6}
!47 = metadata !{metadata !"kernel_arg_addr_space", i32 0, i32 0, i32 0}
!48 = metadata !{metadata !"kernel_arg_access_qual", metadata !"none", metadata !"none", metadata !"none"}
!49 = metadata !{metadata !"kernel_arg_type", metadata !"hls::stream<PRbus> &", metadata !"int", metadata !"short"}
!50 = metadata !{metadata !"kernel_arg_type_qual", metadata !"", metadata !"", metadata !""}
!51 = metadata !{metadata !"kernel_arg_name", metadata !"pr", metadata !"addr", metadata !"areaID"}
!52 = metadata !{null, metadata !1, metadata !2, metadata !53, metadata !4, metadata !54, metadata !6}
!53 = metadata !{metadata !"kernel_arg_type", metadata !"hls::stream<uint> &", metadata !"hls::stream<PRbus> &"}
!54 = metadata !{metadata !"kernel_arg_name", metadata !"src", metadata !"pr"}
!55 = metadata !{null, metadata !8, metadata !9, metadata !56, metadata !11, metadata !57, metadata !6}
!56 = metadata !{metadata !"kernel_arg_type", metadata !"hls::stream<uint>", metadata !"hls::stream<uint>", metadata !"hls::stream<PRbus>", metadata !"hls::stream<_Bool>"}
!57 = metadata !{metadata !"kernel_arg_name", metadata !"din", metadata !"dout", metadata !"pr", metadata !"prDone"}
!58 = metadata !{null, metadata !35, metadata !36, metadata !59, metadata !38, metadata !60, metadata !6}
!59 = metadata !{metadata !"kernel_arg_type", metadata !"_Bool &"}
!60 = metadata !{metadata !"kernel_arg_name", metadata !"dout"}
!61 = metadata !{null, metadata !35, metadata !36, metadata !62, metadata !38, metadata !63, metadata !6}
!62 = metadata !{metadata !"kernel_arg_type", metadata !"const PRbus &"}
!63 = metadata !{metadata !"kernel_arg_name", metadata !"din"}
!64 = metadata !{null, metadata !65, metadata !66, metadata !67, metadata !68, metadata !69, metadata !6}
!65 = metadata !{metadata !"kernel_arg_addr_space"}
!66 = metadata !{metadata !"kernel_arg_access_qual"}
!67 = metadata !{metadata !"kernel_arg_type"}
!68 = metadata !{metadata !"kernel_arg_type_qual"}
!69 = metadata !{metadata !"kernel_arg_name"}
!70 = metadata !{null, metadata !35, metadata !36, metadata !71, metadata !38, metadata !63, metadata !6}
!71 = metadata !{metadata !"kernel_arg_type", metadata !"const uint &"}
!72 = metadata !{metadata !73, [1 x i32]* @llvm.global_ctors.0}
!73 = metadata !{metadata !74}
!74 = metadata !{i32 0, i32 31, metadata !75}
!75 = metadata !{metadata !76}
!76 = metadata !{metadata !"llvm.global_ctors.0", metadata !77, metadata !"", i32 0, i32 31}
!77 = metadata !{metadata !78}
!78 = metadata !{i32 0, i32 0, i32 1}
!79 = metadata !{metadata !80, double* @conv64}
!80 = metadata !{metadata !81}
!81 = metadata !{i32 0, i32 63, metadata !82}
!82 = metadata !{metadata !83}
!83 = metadata !{metadata !"conv64", metadata !77, metadata !"", i32 0, i32 63}
!84 = metadata !{metadata !85, float* @conv32}
!85 = metadata !{metadata !86}
!86 = metadata !{i32 0, i32 31, metadata !87}
!87 = metadata !{metadata !88}
!88 = metadata !{metadata !"conv32", metadata !77, metadata !"", i32 0, i32 31}
!89 = metadata !{i32 786449, i32 0, i32 4, metadata !"/home/julian/workspace/devel/fpga_by_example/zedboard/DPR/src/IPs/zipFactory/src/hls/prj.hlsObj/solution/.autopilot/db/wrapperAdmin.pragma.2.cc", metadata !"/home/julian/workspace/devel/fpga_by_example/zedboard/DPR/src/IPs/zipFactory/src/hls", metadata !"clang version 3.1 ", i1 true, i1 false, metadata !"", i32 0, null, null, null, metadata !90} ; [ DW_TAG_compile_unit ]
!90 = metadata !{metadata !91}
!91 = metadata !{metadata !92, metadata !113, metadata !116, metadata !119, metadata !122, metadata !179, metadata !181, metadata !192, metadata !195, metadata !198, metadata !201, metadata !202, metadata !203, metadata !253, metadata !254, metadata !257, metadata !258, metadata !254, metadata !257, metadata !258, metadata !257, metadata !259, metadata !260, metadata !257, metadata !259, metadata !261, metadata !269, metadata !270, metadata !271, metadata !272, metadata !273, metadata !274, metadata !275, metadata !276, metadata !277, metadata !278, metadata !279}
!92 = metadata !{i32 790546, i32 0, null, metadata !"header.size", metadata !"header.size", metadata !"header.size", metadata !93, i32 9, metadata !94, i32 1, i32 1, i16* @header.size} ; [ DW_TAG_variable_field ]
!93 = metadata !{i32 786473, metadata !"./wrapperAdmin.h", metadata !"/home/julian/workspace/devel/fpga_by_example/zedboard/DPR/src/IPs/zipFactory/src/hls", null} ; [ DW_TAG_file_type ]
!94 = metadata !{i32 786438, null, metadata !"headerStruct", metadata !95, i32 11, i64 16, i64 8, i32 0, i32 0, null, metadata !96, i32 0, null, null} ; [ DW_TAG_class_field_type ]
!95 = metadata !{i32 786473, metadata !"./header.h", metadata !"/home/julian/workspace/devel/fpga_by_example/zedboard/DPR/src/IPs/zipFactory/src/hls", null} ; [ DW_TAG_file_type ]
!96 = metadata !{metadata !97}
!97 = metadata !{i32 786445, metadata !98, metadata !"size", metadata !95, i32 20, i64 16, i64 16, i64 48, i32 0, metadata !106} ; [ DW_TAG_member ]
!98 = metadata !{i32 786434, null, metadata !"headerStruct", metadata !95, i32 11, i64 64, i64 8, i32 0, i32 0, null, metadata !99, i32 0, null, null} ; [ DW_TAG_class_type ]
!99 = metadata !{metadata !100, metadata !102, metadata !103, metadata !104, metadata !105, metadata !97, metadata !107}
!100 = metadata !{i32 786445, metadata !98, metadata !"nodeID", metadata !95, i32 14, i64 8, i64 8, i64 0, i32 0, metadata !101} ; [ DW_TAG_member ]
!101 = metadata !{i32 786468, null, metadata !"unsigned char", null, i32 0, i64 8, i64 8, i64 0, i32 0, i32 8} ; [ DW_TAG_base_type ]
!102 = metadata !{i32 786445, metadata !98, metadata !"objectID", metadata !95, i32 15, i64 8, i64 8, i64 8, i32 0, metadata !101} ; [ DW_TAG_member ]
!103 = metadata !{i32 786445, metadata !98, metadata !"methodID", metadata !95, i32 16, i64 8, i64 8, i64 16, i32 0, metadata !101} ; [ DW_TAG_member ]
!104 = metadata !{i32 786445, metadata !98, metadata !"flags", metadata !95, i32 17, i64 8, i64 8, i64 24, i32 0, metadata !101} ; [ DW_TAG_member ]
!105 = metadata !{i32 786445, metadata !98, metadata !"cb", metadata !95, i32 19, i64 16, i64 16, i64 32, i32 0, metadata !106} ; [ DW_TAG_member ]
!106 = metadata !{i32 786468, null, metadata !"unsigned short", null, i32 0, i64 16, i64 16, i64 0, i32 0, i32 7} ; [ DW_TAG_base_type ]
!107 = metadata !{i32 786478, i32 0, metadata !98, metadata !"headerStruct", metadata !"headerStruct", metadata !"", metadata !95, i32 11, metadata !108, i1 false, i1 false, i32 0, i32 0, null, i32 320, i1 false, null, null, i32 0, metadata !111, i32 11} ; [ DW_TAG_subprogram ]
!108 = metadata !{i32 786453, i32 0, metadata !"", i32 0, i32 0, i64 0, i64 0, i64 0, i32 0, null, metadata !109, i32 0, i32 0} ; [ DW_TAG_subroutine_type ]
!109 = metadata !{null, metadata !110}
!110 = metadata !{i32 786447, i32 0, metadata !"", i32 0, i32 0, i64 64, i64 64, i64 0, i32 64, metadata !98} ; [ DW_TAG_pointer_type ]
!111 = metadata !{metadata !112}
!112 = metadata !{i32 786468}                     ; [ DW_TAG_base_type ]
!113 = metadata !{i32 790546, i32 0, null, metadata !"header.objectID", metadata !"header.objectID", metadata !"header.objectID", metadata !93, i32 9, metadata !114, i32 1, i32 1, i8* @header.objectID} ; [ DW_TAG_variable_field ]
!114 = metadata !{i32 786438, null, metadata !"headerStruct", metadata !95, i32 11, i64 8, i64 8, i32 0, i32 0, null, metadata !115, i32 0, null, null} ; [ DW_TAG_class_field_type ]
!115 = metadata !{metadata !102}
!116 = metadata !{i32 790546, i32 0, null, metadata !"header.methodID", metadata !"header.methodID", metadata !"header.methodID", metadata !93, i32 9, metadata !117, i32 1, i32 1, i8* @header.methodID} ; [ DW_TAG_variable_field ]
!117 = metadata !{i32 786438, null, metadata !"headerStruct", metadata !95, i32 11, i64 8, i64 8, i32 0, i32 0, null, metadata !118, i32 0, null, null} ; [ DW_TAG_class_field_type ]
!118 = metadata !{metadata !103}
!119 = metadata !{i32 790546, i32 0, null, metadata !"header.cb", metadata !"header.cb", metadata !"header.cb", metadata !93, i32 9, metadata !120, i32 1, i32 1, i16* @header.cb} ; [ DW_TAG_variable_field ]
!120 = metadata !{i32 786438, null, metadata !"headerStruct", metadata !95, i32 11, i64 16, i64 8, i32 0, i32 0, null, metadata !121, i32 0, null, null} ; [ DW_TAG_class_field_type ]
!121 = metadata !{metadata !105}
!122 = metadata !{i32 790546, i32 0, null, metadata !"bufferRESP.V", metadata !"bufferRESP.V", metadata !"bufferRESP.V", metadata !93, i32 16, metadata !123, i32 1, i32 1, i32* @bufferRESP.V} ; [ DW_TAG_variable_field ]
!123 = metadata !{i32 786438, metadata !124, metadata !"stream<unsigned int>", metadata !125, i32 79, i64 32, i64 32, i32 0, i32 0, null, metadata !126, i32 0, null, metadata !177} ; [ DW_TAG_class_field_type ]
!124 = metadata !{i32 786489, null, metadata !"hls", metadata !125, i32 69} ; [ DW_TAG_namespace ]
!125 = metadata !{i32 786473, metadata !"/opt/Xilinx/Vivado/2017.4/common/technology/autopilot/hls_stream.h", metadata !"/home/julian/workspace/devel/fpga_by_example/zedboard/DPR/src/IPs/zipFactory/src/hls", null} ; [ DW_TAG_file_type ]
!126 = metadata !{metadata !127}
!127 = metadata !{i32 786445, metadata !128, metadata !"V", metadata !125, i32 163, i64 32, i64 32, i64 0, i32 0, metadata !153} ; [ DW_TAG_member ]
!128 = metadata !{i32 786434, metadata !124, metadata !"stream<unsigned int>", metadata !125, i32 79, i64 32, i64 32, i32 0, i32 0, null, metadata !129, i32 0, null, metadata !177} ; [ DW_TAG_class_type ]
!129 = metadata !{metadata !127, metadata !130, metadata !134, metadata !140, metadata !145, metadata !149, metadata !154, metadata !159, metadata !164, metadata !165, metadata !166, metadata !169, metadata !172, metadata !173, metadata !176}
!130 = metadata !{i32 786478, i32 0, metadata !128, metadata !"stream", metadata !"stream", metadata !"", metadata !125, i32 83, metadata !131, i1 false, i1 false, i32 0, i32 0, null, i32 256, i1 false, null, null, i32 0, metadata !111, i32 83} ; [ DW_TAG_subprogram ]
!131 = metadata !{i32 786453, i32 0, metadata !"", i32 0, i32 0, i64 0, i64 0, i64 0, i32 0, null, metadata !132, i32 0, i32 0} ; [ DW_TAG_subroutine_type ]
!132 = metadata !{null, metadata !133}
!133 = metadata !{i32 786447, i32 0, metadata !"", i32 0, i32 0, i64 64, i64 64, i64 0, i32 64, metadata !128} ; [ DW_TAG_pointer_type ]
!134 = metadata !{i32 786478, i32 0, metadata !128, metadata !"stream", metadata !"stream", metadata !"", metadata !125, i32 86, metadata !135, i1 false, i1 false, i32 0, i32 0, null, i32 256, i1 false, null, null, i32 0, metadata !111, i32 86} ; [ DW_TAG_subprogram ]
!135 = metadata !{i32 786453, i32 0, metadata !"", i32 0, i32 0, i64 0, i64 0, i64 0, i32 0, null, metadata !136, i32 0, i32 0} ; [ DW_TAG_subroutine_type ]
!136 = metadata !{null, metadata !133, metadata !137}
!137 = metadata !{i32 786447, null, metadata !"", null, i32 0, i64 64, i64 64, i64 0, i32 0, metadata !138} ; [ DW_TAG_pointer_type ]
!138 = metadata !{i32 786470, null, metadata !"", null, i32 0, i64 0, i64 0, i64 0, i32 0, metadata !139} ; [ DW_TAG_const_type ]
!139 = metadata !{i32 786468, null, metadata !"char", null, i32 0, i64 8, i64 8, i64 0, i32 0, i32 6} ; [ DW_TAG_base_type ]
!140 = metadata !{i32 786478, i32 0, metadata !128, metadata !"stream", metadata !"stream", metadata !"", metadata !125, i32 91, metadata !141, i1 false, i1 false, i32 0, i32 0, null, i32 257, i1 false, null, null, i32 0, metadata !111, i32 91} ; [ DW_TAG_subprogram ]
!141 = metadata !{i32 786453, i32 0, metadata !"", i32 0, i32 0, i64 0, i64 0, i64 0, i32 0, null, metadata !142, i32 0, i32 0} ; [ DW_TAG_subroutine_type ]
!142 = metadata !{null, metadata !133, metadata !143}
!143 = metadata !{i32 786448, null, null, null, i32 0, i64 0, i64 0, i64 0, i32 0, metadata !144} ; [ DW_TAG_reference_type ]
!144 = metadata !{i32 786470, null, metadata !"", null, i32 0, i64 0, i64 0, i64 0, i32 0, metadata !128} ; [ DW_TAG_const_type ]
!145 = metadata !{i32 786478, i32 0, metadata !128, metadata !"operator=", metadata !"operator=", metadata !"_ZN3hls6streamIjEaSERKS1_", metadata !125, i32 94, metadata !146, i1 false, i1 false, i32 0, i32 0, null, i32 257, i1 false, null, null, i32 0, metadata !111, i32 94} ; [ DW_TAG_subprogram ]
!146 = metadata !{i32 786453, i32 0, metadata !"", i32 0, i32 0, i64 0, i64 0, i64 0, i32 0, null, metadata !147, i32 0, i32 0} ; [ DW_TAG_subroutine_type ]
!147 = metadata !{metadata !148, metadata !133, metadata !143}
!148 = metadata !{i32 786448, null, null, null, i32 0, i64 0, i64 0, i64 0, i32 0, metadata !128} ; [ DW_TAG_reference_type ]
!149 = metadata !{i32 786478, i32 0, metadata !128, metadata !"operator>>", metadata !"operator>>", metadata !"_ZN3hls6streamIjErsERj", metadata !125, i32 101, metadata !150, i1 false, i1 false, i32 0, i32 0, null, i32 256, i1 false, null, null, i32 0, metadata !111, i32 101} ; [ DW_TAG_subprogram ]
!150 = metadata !{i32 786453, i32 0, metadata !"", i32 0, i32 0, i64 0, i64 0, i64 0, i32 0, null, metadata !151, i32 0, i32 0} ; [ DW_TAG_subroutine_type ]
!151 = metadata !{null, metadata !133, metadata !152}
!152 = metadata !{i32 786448, null, null, null, i32 0, i64 0, i64 0, i64 0, i32 0, metadata !153} ; [ DW_TAG_reference_type ]
!153 = metadata !{i32 786468, null, metadata !"unsigned int", null, i32 0, i64 32, i64 32, i64 0, i32 0, i32 7} ; [ DW_TAG_base_type ]
!154 = metadata !{i32 786478, i32 0, metadata !128, metadata !"operator<<", metadata !"operator<<", metadata !"_ZN3hls6streamIjElsERKj", metadata !125, i32 105, metadata !155, i1 false, i1 false, i32 0, i32 0, null, i32 256, i1 false, null, null, i32 0, metadata !111, i32 105} ; [ DW_TAG_subprogram ]
!155 = metadata !{i32 786453, i32 0, metadata !"", i32 0, i32 0, i64 0, i64 0, i64 0, i32 0, null, metadata !156, i32 0, i32 0} ; [ DW_TAG_subroutine_type ]
!156 = metadata !{null, metadata !133, metadata !157}
!157 = metadata !{i32 786448, null, null, null, i32 0, i64 0, i64 0, i64 0, i32 0, metadata !158} ; [ DW_TAG_reference_type ]
!158 = metadata !{i32 786470, null, metadata !"", null, i32 0, i64 0, i64 0, i64 0, i32 0, metadata !153} ; [ DW_TAG_const_type ]
!159 = metadata !{i32 786478, i32 0, metadata !128, metadata !"empty", metadata !"empty", metadata !"_ZNK3hls6streamIjE5emptyEv", metadata !125, i32 112, metadata !160, i1 false, i1 false, i32 0, i32 0, null, i32 256, i1 false, null, null, i32 0, metadata !111, i32 112} ; [ DW_TAG_subprogram ]
!160 = metadata !{i32 786453, i32 0, metadata !"", i32 0, i32 0, i64 0, i64 0, i64 0, i32 0, null, metadata !161, i32 0, i32 0} ; [ DW_TAG_subroutine_type ]
!161 = metadata !{metadata !162, metadata !163}
!162 = metadata !{i32 786468, null, metadata !"bool", null, i32 0, i64 8, i64 8, i64 0, i32 0, i32 2} ; [ DW_TAG_base_type ]
!163 = metadata !{i32 786447, i32 0, metadata !"", i32 0, i32 0, i64 64, i64 64, i64 0, i32 64, metadata !144} ; [ DW_TAG_pointer_type ]
!164 = metadata !{i32 786478, i32 0, metadata !128, metadata !"full", metadata !"full", metadata !"_ZNK3hls6streamIjE4fullEv", metadata !125, i32 117, metadata !160, i1 false, i1 false, i32 0, i32 0, null, i32 256, i1 false, null, null, i32 0, metadata !111, i32 117} ; [ DW_TAG_subprogram ]
!165 = metadata !{i32 786478, i32 0, metadata !128, metadata !"read", metadata !"read", metadata !"_ZN3hls6streamIjE4readERj", metadata !125, i32 123, metadata !150, i1 false, i1 false, i32 0, i32 0, null, i32 256, i1 false, null, null, i32 0, metadata !111, i32 123} ; [ DW_TAG_subprogram ]
!166 = metadata !{i32 786478, i32 0, metadata !128, metadata !"read", metadata !"read", metadata !"_ZN3hls6streamIjE4readEv", metadata !125, i32 129, metadata !167, i1 false, i1 false, i32 0, i32 0, null, i32 256, i1 false, null, null, i32 0, metadata !111, i32 129} ; [ DW_TAG_subprogram ]
!167 = metadata !{i32 786453, i32 0, metadata !"", i32 0, i32 0, i64 0, i64 0, i64 0, i32 0, null, metadata !168, i32 0, i32 0} ; [ DW_TAG_subroutine_type ]
!168 = metadata !{metadata !153, metadata !133}
!169 = metadata !{i32 786478, i32 0, metadata !128, metadata !"read_nb", metadata !"read_nb", metadata !"_ZN3hls6streamIjE7read_nbERj", metadata !125, i32 136, metadata !170, i1 false, i1 false, i32 0, i32 0, null, i32 256, i1 false, null, null, i32 0, metadata !111, i32 136} ; [ DW_TAG_subprogram ]
!170 = metadata !{i32 786453, i32 0, metadata !"", i32 0, i32 0, i64 0, i64 0, i64 0, i32 0, null, metadata !171, i32 0, i32 0} ; [ DW_TAG_subroutine_type ]
!171 = metadata !{metadata !162, metadata !133, metadata !152}
!172 = metadata !{i32 786478, i32 0, metadata !128, metadata !"write", metadata !"write", metadata !"_ZN3hls6streamIjE5writeERKj", metadata !125, i32 144, metadata !155, i1 false, i1 false, i32 0, i32 0, null, i32 256, i1 false, null, null, i32 0, metadata !111, i32 144} ; [ DW_TAG_subprogram ]
!173 = metadata !{i32 786478, i32 0, metadata !128, metadata !"write_nb", metadata !"write_nb", metadata !"_ZN3hls6streamIjE8write_nbERKj", metadata !125, i32 150, metadata !174, i1 false, i1 false, i32 0, i32 0, null, i32 256, i1 false, null, null, i32 0, metadata !111, i32 150} ; [ DW_TAG_subprogram ]
!174 = metadata !{i32 786453, i32 0, metadata !"", i32 0, i32 0, i64 0, i64 0, i64 0, i32 0, null, metadata !175, i32 0, i32 0} ; [ DW_TAG_subroutine_type ]
!175 = metadata !{metadata !162, metadata !133, metadata !157}
!176 = metadata !{i32 786478, i32 0, metadata !128, metadata !"size", metadata !"size", metadata !"_ZN3hls6streamIjE4sizeEv", metadata !125, i32 157, metadata !167, i1 false, i1 false, i32 0, i32 0, null, i32 256, i1 false, null, null, i32 0, metadata !111, i32 157} ; [ DW_TAG_subprogram ]
!177 = metadata !{metadata !178}
!178 = metadata !{i32 786479, null, metadata !"__STREAM_T__", metadata !153, null, i32 0, i32 0} ; [ DW_TAG_template_type_parameter ]
!179 = metadata !{i32 786484, i32 0, null, metadata !"_status", metadata !"_status", metadata !"_status", metadata !93, i32 17, metadata !180, i32 1, i32 1, i4* @_status} ; [ DW_TAG_variable ]
!180 = metadata !{i32 786468, null, metadata !"int", null, i32 0, i64 32, i64 32, i64 0, i32 0, i32 5} ; [ DW_TAG_base_type ]
!181 = metadata !{i32 790546, i32 0, null, metadata !"args_newObject.addr", metadata !"args_newObject.addr", metadata !"args_newObject.addr", metadata !93, i32 38, metadata !182, i32 1, i32 1, null} ; [ DW_TAG_variable_field ]
!182 = metadata !{i32 786438, null, metadata !"PARAM_newObject", metadata !93, i32 33, i64 32, i64 8, i32 0, i32 0, null, metadata !183, i32 0, null, null} ; [ DW_TAG_class_field_type ]
!183 = metadata !{metadata !184}
!184 = metadata !{i32 786445, metadata !185, metadata !"addr", metadata !93, i32 34, i64 32, i64 32, i64 0, i32 0, metadata !153} ; [ DW_TAG_member ]
!185 = metadata !{i32 786434, null, metadata !"PARAM_newObject", metadata !93, i32 33, i64 48, i64 8, i32 0, i32 0, null, metadata !186, i32 0, null, null} ; [ DW_TAG_class_type ]
!186 = metadata !{metadata !184, metadata !187, metadata !188}
!187 = metadata !{i32 786445, metadata !185, metadata !"areaID", metadata !93, i32 35, i64 16, i64 16, i64 32, i32 0, metadata !106} ; [ DW_TAG_member ]
!188 = metadata !{i32 786478, i32 0, metadata !185, metadata !"PARAM_newObject", metadata !"PARAM_newObject", metadata !"", metadata !93, i32 33, metadata !189, i1 false, i1 false, i32 0, i32 0, null, i32 320, i1 false, null, null, i32 0, metadata !111, i32 33} ; [ DW_TAG_subprogram ]
!189 = metadata !{i32 786453, i32 0, metadata !"", i32 0, i32 0, i64 0, i64 0, i64 0, i32 0, null, metadata !190, i32 0, i32 0} ; [ DW_TAG_subroutine_type ]
!190 = metadata !{null, metadata !191}
!191 = metadata !{i32 786447, i32 0, metadata !"", i32 0, i32 0, i64 64, i64 64, i64 0, i32 64, metadata !185} ; [ DW_TAG_pointer_type ]
!192 = metadata !{i32 790546, i32 0, null, metadata !"header.nodeID", metadata !"header.nodeID", metadata !"header.nodeID", metadata !93, i32 9, metadata !193, i32 1, i32 1, null} ; [ DW_TAG_variable_field ]
!193 = metadata !{i32 786438, null, metadata !"headerStruct", metadata !95, i32 11, i64 8, i64 8, i32 0, i32 0, null, metadata !194, i32 0, null, null} ; [ DW_TAG_class_field_type ]
!194 = metadata !{metadata !100}
!195 = metadata !{i32 790546, i32 0, null, metadata !"header.flags", metadata !"header.flags", metadata !"header.flags", metadata !93, i32 9, metadata !196, i32 1, i32 1, null} ; [ DW_TAG_variable_field ]
!196 = metadata !{i32 786438, null, metadata !"headerStruct", metadata !95, i32 11, i64 8, i64 8, i32 0, i32 0, null, metadata !197, i32 0, null, null} ; [ DW_TAG_class_field_type ]
!197 = metadata !{metadata !104}
!198 = metadata !{i32 790546, i32 0, null, metadata !"args_newObject.areaID", metadata !"args_newObject.areaID", metadata !"args_newObject.areaID", metadata !93, i32 38, metadata !199, i32 1, i32 1, null} ; [ DW_TAG_variable_field ]
!199 = metadata !{i32 786438, null, metadata !"PARAM_newObject", metadata !93, i32 33, i64 16, i64 8, i32 0, i32 0, null, metadata !200, i32 0, null, null} ; [ DW_TAG_class_field_type ]
!200 = metadata !{metadata !187}
!201 = metadata !{i32 786484, i32 0, null, metadata !"header", metadata !"header", metadata !"_ZL6header", metadata !93, i32 9, metadata !98, i32 1, i32 1, null} ; [ DW_TAG_variable ]
!202 = metadata !{i32 786484, i32 0, null, metadata !"bufferRESP", metadata !"bufferRESP", metadata !"_ZL10bufferRESP", metadata !93, i32 16, metadata !128, i32 1, i32 1, null} ; [ DW_TAG_variable ]
!203 = metadata !{i32 786484, i32 0, null, metadata !"bufferPRdone", metadata !"bufferPRdone", metadata !"_ZL12bufferPRdone", metadata !93, i32 25, metadata !204, i32 1, i32 1, null} ; [ DW_TAG_variable ]
!204 = metadata !{i32 786434, metadata !124, metadata !"stream<bool>", metadata !125, i32 79, i64 8, i64 8, i32 0, i32 0, null, metadata !205, i32 0, null, metadata !251} ; [ DW_TAG_class_type ]
!205 = metadata !{metadata !206, metadata !207, metadata !211, metadata !214, metadata !219, metadata !223, metadata !227, metadata !232, metadata !236, metadata !237, metadata !238, metadata !241, metadata !244, metadata !245, metadata !248}
!206 = metadata !{i32 786445, metadata !204, metadata !"V", metadata !125, i32 163, i64 8, i64 8, i64 0, i32 0, metadata !162} ; [ DW_TAG_member ]
!207 = metadata !{i32 786478, i32 0, metadata !204, metadata !"stream", metadata !"stream", metadata !"", metadata !125, i32 83, metadata !208, i1 false, i1 false, i32 0, i32 0, null, i32 256, i1 false, null, null, i32 0, metadata !111, i32 83} ; [ DW_TAG_subprogram ]
!208 = metadata !{i32 786453, i32 0, metadata !"", i32 0, i32 0, i64 0, i64 0, i64 0, i32 0, null, metadata !209, i32 0, i32 0} ; [ DW_TAG_subroutine_type ]
!209 = metadata !{null, metadata !210}
!210 = metadata !{i32 786447, i32 0, metadata !"", i32 0, i32 0, i64 64, i64 64, i64 0, i32 64, metadata !204} ; [ DW_TAG_pointer_type ]
!211 = metadata !{i32 786478, i32 0, metadata !204, metadata !"stream", metadata !"stream", metadata !"", metadata !125, i32 86, metadata !212, i1 false, i1 false, i32 0, i32 0, null, i32 256, i1 false, null, null, i32 0, metadata !111, i32 86} ; [ DW_TAG_subprogram ]
!212 = metadata !{i32 786453, i32 0, metadata !"", i32 0, i32 0, i64 0, i64 0, i64 0, i32 0, null, metadata !213, i32 0, i32 0} ; [ DW_TAG_subroutine_type ]
!213 = metadata !{null, metadata !210, metadata !137}
!214 = metadata !{i32 786478, i32 0, metadata !204, metadata !"stream", metadata !"stream", metadata !"", metadata !125, i32 91, metadata !215, i1 false, i1 false, i32 0, i32 0, null, i32 257, i1 false, null, null, i32 0, metadata !111, i32 91} ; [ DW_TAG_subprogram ]
!215 = metadata !{i32 786453, i32 0, metadata !"", i32 0, i32 0, i64 0, i64 0, i64 0, i32 0, null, metadata !216, i32 0, i32 0} ; [ DW_TAG_subroutine_type ]
!216 = metadata !{null, metadata !210, metadata !217}
!217 = metadata !{i32 786448, null, null, null, i32 0, i64 0, i64 0, i64 0, i32 0, metadata !218} ; [ DW_TAG_reference_type ]
!218 = metadata !{i32 786470, null, metadata !"", null, i32 0, i64 0, i64 0, i64 0, i32 0, metadata !204} ; [ DW_TAG_const_type ]
!219 = metadata !{i32 786478, i32 0, metadata !204, metadata !"operator=", metadata !"operator=", metadata !"_ZN3hls6streamIbEaSERKS1_", metadata !125, i32 94, metadata !220, i1 false, i1 false, i32 0, i32 0, null, i32 257, i1 false, null, null, i32 0, metadata !111, i32 94} ; [ DW_TAG_subprogram ]
!220 = metadata !{i32 786453, i32 0, metadata !"", i32 0, i32 0, i64 0, i64 0, i64 0, i32 0, null, metadata !221, i32 0, i32 0} ; [ DW_TAG_subroutine_type ]
!221 = metadata !{metadata !222, metadata !210, metadata !217}
!222 = metadata !{i32 786448, null, null, null, i32 0, i64 0, i64 0, i64 0, i32 0, metadata !204} ; [ DW_TAG_reference_type ]
!223 = metadata !{i32 786478, i32 0, metadata !204, metadata !"operator>>", metadata !"operator>>", metadata !"_ZN3hls6streamIbErsERb", metadata !125, i32 101, metadata !224, i1 false, i1 false, i32 0, i32 0, null, i32 256, i1 false, null, null, i32 0, metadata !111, i32 101} ; [ DW_TAG_subprogram ]
!224 = metadata !{i32 786453, i32 0, metadata !"", i32 0, i32 0, i64 0, i64 0, i64 0, i32 0, null, metadata !225, i32 0, i32 0} ; [ DW_TAG_subroutine_type ]
!225 = metadata !{null, metadata !210, metadata !226}
!226 = metadata !{i32 786448, null, null, null, i32 0, i64 0, i64 0, i64 0, i32 0, metadata !162} ; [ DW_TAG_reference_type ]
!227 = metadata !{i32 786478, i32 0, metadata !204, metadata !"operator<<", metadata !"operator<<", metadata !"_ZN3hls6streamIbElsERKb", metadata !125, i32 105, metadata !228, i1 false, i1 false, i32 0, i32 0, null, i32 256, i1 false, null, null, i32 0, metadata !111, i32 105} ; [ DW_TAG_subprogram ]
!228 = metadata !{i32 786453, i32 0, metadata !"", i32 0, i32 0, i64 0, i64 0, i64 0, i32 0, null, metadata !229, i32 0, i32 0} ; [ DW_TAG_subroutine_type ]
!229 = metadata !{null, metadata !210, metadata !230}
!230 = metadata !{i32 786448, null, null, null, i32 0, i64 0, i64 0, i64 0, i32 0, metadata !231} ; [ DW_TAG_reference_type ]
!231 = metadata !{i32 786470, null, metadata !"", null, i32 0, i64 0, i64 0, i64 0, i32 0, metadata !162} ; [ DW_TAG_const_type ]
!232 = metadata !{i32 786478, i32 0, metadata !204, metadata !"empty", metadata !"empty", metadata !"_ZNK3hls6streamIbE5emptyEv", metadata !125, i32 112, metadata !233, i1 false, i1 false, i32 0, i32 0, null, i32 256, i1 false, null, null, i32 0, metadata !111, i32 112} ; [ DW_TAG_subprogram ]
!233 = metadata !{i32 786453, i32 0, metadata !"", i32 0, i32 0, i64 0, i64 0, i64 0, i32 0, null, metadata !234, i32 0, i32 0} ; [ DW_TAG_subroutine_type ]
!234 = metadata !{metadata !162, metadata !235}
!235 = metadata !{i32 786447, i32 0, metadata !"", i32 0, i32 0, i64 64, i64 64, i64 0, i32 64, metadata !218} ; [ DW_TAG_pointer_type ]
!236 = metadata !{i32 786478, i32 0, metadata !204, metadata !"full", metadata !"full", metadata !"_ZNK3hls6streamIbE4fullEv", metadata !125, i32 117, metadata !233, i1 false, i1 false, i32 0, i32 0, null, i32 256, i1 false, null, null, i32 0, metadata !111, i32 117} ; [ DW_TAG_subprogram ]
!237 = metadata !{i32 786478, i32 0, metadata !204, metadata !"read", metadata !"read", metadata !"_ZN3hls6streamIbE4readERb", metadata !125, i32 123, metadata !224, i1 false, i1 false, i32 0, i32 0, null, i32 256, i1 false, null, null, i32 0, metadata !111, i32 123} ; [ DW_TAG_subprogram ]
!238 = metadata !{i32 786478, i32 0, metadata !204, metadata !"read", metadata !"read", metadata !"_ZN3hls6streamIbE4readEv", metadata !125, i32 129, metadata !239, i1 false, i1 false, i32 0, i32 0, null, i32 256, i1 false, null, null, i32 0, metadata !111, i32 129} ; [ DW_TAG_subprogram ]
!239 = metadata !{i32 786453, i32 0, metadata !"", i32 0, i32 0, i64 0, i64 0, i64 0, i32 0, null, metadata !240, i32 0, i32 0} ; [ DW_TAG_subroutine_type ]
!240 = metadata !{metadata !162, metadata !210}
!241 = metadata !{i32 786478, i32 0, metadata !204, metadata !"read_nb", metadata !"read_nb", metadata !"_ZN3hls6streamIbE7read_nbERb", metadata !125, i32 136, metadata !242, i1 false, i1 false, i32 0, i32 0, null, i32 256, i1 false, null, null, i32 0, metadata !111, i32 136} ; [ DW_TAG_subprogram ]
!242 = metadata !{i32 786453, i32 0, metadata !"", i32 0, i32 0, i64 0, i64 0, i64 0, i32 0, null, metadata !243, i32 0, i32 0} ; [ DW_TAG_subroutine_type ]
!243 = metadata !{metadata !162, metadata !210, metadata !226}
!244 = metadata !{i32 786478, i32 0, metadata !204, metadata !"write", metadata !"write", metadata !"_ZN3hls6streamIbE5writeERKb", metadata !125, i32 144, metadata !228, i1 false, i1 false, i32 0, i32 0, null, i32 256, i1 false, null, null, i32 0, metadata !111, i32 144} ; [ DW_TAG_subprogram ]
!245 = metadata !{i32 786478, i32 0, metadata !204, metadata !"write_nb", metadata !"write_nb", metadata !"_ZN3hls6streamIbE8write_nbERKb", metadata !125, i32 150, metadata !246, i1 false, i1 false, i32 0, i32 0, null, i32 256, i1 false, null, null, i32 0, metadata !111, i32 150} ; [ DW_TAG_subprogram ]
!246 = metadata !{i32 786453, i32 0, metadata !"", i32 0, i32 0, i64 0, i64 0, i64 0, i32 0, null, metadata !247, i32 0, i32 0} ; [ DW_TAG_subroutine_type ]
!247 = metadata !{metadata !162, metadata !210, metadata !230}
!248 = metadata !{i32 786478, i32 0, metadata !204, metadata !"size", metadata !"size", metadata !"_ZN3hls6streamIbE4sizeEv", metadata !125, i32 157, metadata !249, i1 false, i1 false, i32 0, i32 0, null, i32 256, i1 false, null, null, i32 0, metadata !111, i32 157} ; [ DW_TAG_subprogram ]
!249 = metadata !{i32 786453, i32 0, metadata !"", i32 0, i32 0, i64 0, i64 0, i64 0, i32 0, null, metadata !250, i32 0, i32 0} ; [ DW_TAG_subroutine_type ]
!250 = metadata !{metadata !153, metadata !210}
!251 = metadata !{metadata !252}
!252 = metadata !{i32 786479, null, metadata !"__STREAM_T__", metadata !162, null, i32 0, i32 0} ; [ DW_TAG_template_type_parameter ]
!253 = metadata !{i32 786484, i32 0, null, metadata !"args_newObject", metadata !"args_newObject", metadata !"_ZL14args_newObject", metadata !93, i32 38, metadata !185, i32 1, i32 1, null} ; [ DW_TAG_variable ]
!254 = metadata !{i32 786484, i32 0, metadata !255, metadata !"FLAG_HAS_PAYLOAD", metadata !"FLAG_HAS_PAYLOAD", metadata !"FLAG_HAS_PAYLOAD", metadata !255, i32 11, metadata !256, i32 1, i32 1, i8 4} ; [ DW_TAG_variable ]
!255 = metadata !{i32 786473, metadata !"./flag_codes.h", metadata !"/home/julian/workspace/devel/fpga_by_example/zedboard/DPR/src/IPs/zipFactory/src/hls", null} ; [ DW_TAG_file_type ]
!256 = metadata !{i32 786470, null, metadata !"", null, i32 0, i64 0, i64 0, i64 0, i32 0, metadata !101} ; [ DW_TAG_const_type ]
!257 = metadata !{i32 786484, i32 0, metadata !255, metadata !"FLAG_RESPONSE", metadata !"FLAG_RESPONSE", metadata !"FLAG_RESPONSE", metadata !255, i32 6, metadata !256, i32 1, i32 1, i8 1} ; [ DW_TAG_variable ]
!258 = metadata !{i32 786484, i32 0, metadata !255, metadata !"FLAG_OK", metadata !"FLAG_OK", metadata !"FLAG_OK", metadata !255, i32 9, metadata !256, i32 1, i32 1, i8 0} ; [ DW_TAG_variable ]
!259 = metadata !{i32 786484, i32 0, metadata !255, metadata !"FLAG_FAIL", metadata !"FLAG_FAIL", metadata !"FLAG_FAIL", metadata !255, i32 8, metadata !256, i32 1, i32 1, i8 2} ; [ DW_TAG_variable ]
!260 = metadata !{i32 786484, i32 0, metadata !95, metadata !"NULL_OBJ", metadata !"NULL_OBJ", metadata !"NULL_OBJ", metadata !95, i32 9, metadata !256, i32 1, i32 1, i8 0} ; [ DW_TAG_variable ]
!261 = metadata !{i32 786484, i32 0, null, metadata !"ssdm_global_array_ins", metadata !"ssdm_global_array_ins", metadata !"_ZL21ssdm_global_array_ins", metadata !262, i32 170, metadata !263, i32 1, i32 1, null} ; [ DW_TAG_variable ]
!262 = metadata !{i32 786473, metadata !"./wrapperAdmin.cc", metadata !"/home/julian/workspace/devel/fpga_by_example/zedboard/DPR/src/IPs/zipFactory/src/hls", null} ; [ DW_TAG_file_type ]
!263 = metadata !{i32 786434, null, metadata !"ssdm_global_array_wrapperAdminpp0ccaplinecc", metadata !262, i32 154, i64 8, i64 8, i32 0, i32 0, null, metadata !264, i32 0, null, null} ; [ DW_TAG_class_type ]
!264 = metadata !{metadata !265}
!265 = metadata !{i32 786478, i32 0, metadata !263, metadata !"ssdm_global_array_wrapperAdminpp0ccaplinecc", metadata !"ssdm_global_array_wrapperAdminpp0ccaplinecc", metadata !"", metadata !262, i32 156, metadata !266, i1 false, i1 false, i32 0, i32 0, null, i32 256, i1 false, null, null, i32 0, metadata !111, i32 156} ; [ DW_TAG_subprogram ]
!266 = metadata !{i32 786453, i32 0, metadata !"", i32 0, i32 0, i64 0, i64 0, i64 0, i32 0, null, metadata !267, i32 0, i32 0} ; [ DW_TAG_subroutine_type ]
!267 = metadata !{null, metadata !268}
!268 = metadata !{i32 786447, i32 0, metadata !"", i32 0, i32 0, i64 64, i64 64, i64 0, i32 64, metadata !263} ; [ DW_TAG_pointer_type ]
!269 = metadata !{i32 786484, i32 0, null, metadata !"NULL_OBJ", metadata !"NULL_OBJ", metadata !"_ZL8NULL_OBJ", metadata !95, i32 9, metadata !256, i32 1, i32 1, null} ; [ DW_TAG_variable ]
!270 = metadata !{i32 786484, i32 0, null, metadata !"BROADCAST", metadata !"BROADCAST", metadata !"_ZL9BROADCAST", metadata !95, i32 7, metadata !256, i32 1, i32 1, null} ; [ DW_TAG_variable ]
!271 = metadata !{i32 786484, i32 0, null, metadata !"FLAG_ASYNC_GET_RESP", metadata !"FLAG_ASYNC_GET_RESP", metadata !"_ZL19FLAG_ASYNC_GET_RESP", metadata !255, i32 17, metadata !256, i32 1, i32 1, null} ; [ DW_TAG_variable ]
!272 = metadata !{i32 786484, i32 0, null, metadata !"FLAG_ASYNC_REQ", metadata !"FLAG_ASYNC_REQ", metadata !"_ZL14FLAG_ASYNC_REQ", metadata !255, i32 16, metadata !256, i32 1, i32 1, null} ; [ DW_TAG_variable ]
!273 = metadata !{i32 786484, i32 0, null, metadata !"FLAG_ASYNC", metadata !"FLAG_ASYNC", metadata !"_ZL10FLAG_ASYNC", metadata !255, i32 14, metadata !256, i32 1, i32 1, null} ; [ DW_TAG_variable ]
!274 = metadata !{i32 786484, i32 0, null, metadata !"FLAG_SYNC", metadata !"FLAG_SYNC", metadata !"_ZL9FLAG_SYNC", metadata !255, i32 13, metadata !256, i32 1, i32 1, null} ; [ DW_TAG_variable ]
!275 = metadata !{i32 786484, i32 0, null, metadata !"FLAG_HAS_PAYLOAD", metadata !"FLAG_HAS_PAYLOAD", metadata !"_ZL16FLAG_HAS_PAYLOAD", metadata !255, i32 11, metadata !256, i32 1, i32 1, null} ; [ DW_TAG_variable ]
!276 = metadata !{i32 786484, i32 0, null, metadata !"FLAG_OK", metadata !"FLAG_OK", metadata !"_ZL7FLAG_OK", metadata !255, i32 9, metadata !256, i32 1, i32 1, null} ; [ DW_TAG_variable ]
!277 = metadata !{i32 786484, i32 0, null, metadata !"FLAG_FAIL", metadata !"FLAG_FAIL", metadata !"_ZL9FLAG_FAIL", metadata !255, i32 8, metadata !256, i32 1, i32 1, null} ; [ DW_TAG_variable ]
!278 = metadata !{i32 786484, i32 0, null, metadata !"FLAG_RESPONSE", metadata !"FLAG_RESPONSE", metadata !"_ZL13FLAG_RESPONSE", metadata !255, i32 6, metadata !256, i32 1, i32 1, null} ; [ DW_TAG_variable ]
!279 = metadata !{i32 786484, i32 0, null, metadata !"FLAG_REQUEST", metadata !"FLAG_REQUEST", metadata !"_ZL12FLAG_REQUEST", metadata !255, i32 5, metadata !256, i32 1, i32 1, null} ; [ DW_TAG_variable ]
!280 = metadata !{i32 125, i32 1, metadata !281, null}
!281 = metadata !{i32 786443, metadata !282, i32 124, i32 1, metadata !262, i32 12} ; [ DW_TAG_lexical_block ]
!282 = metadata !{i32 786478, i32 0, metadata !262, metadata !"wrapperAdmin", metadata !"wrapperAdmin", metadata !"_Z12wrapperAdminN3hls6streamIjEES1_NS0_I5PRbusEENS0_IbEE", metadata !262, i32 121, metadata !283, i1 false, i1 true, i32 0, i32 0, null, i32 256, i1 false, null, null, null, metadata !111, i32 124} ; [ DW_TAG_subprogram ]
!283 = metadata !{i32 786453, i32 0, metadata !"", i32 0, i32 0, i64 0, i64 0, i64 0, i32 0, null, metadata !284, i32 0, i32 0} ; [ DW_TAG_subroutine_type ]
!284 = metadata !{null, metadata !128, metadata !128, metadata !285, metadata !204}
!285 = metadata !{i32 786434, metadata !124, metadata !"stream<PRbus>", metadata !125, i32 79, i64 64, i64 32, i32 0, i32 0, null, metadata !286, i32 0, null, metadata !340} ; [ DW_TAG_class_type ]
!286 = metadata !{metadata !287, metadata !296, metadata !300, metadata !303, metadata !308, metadata !312, metadata !316, metadata !321, metadata !325, metadata !326, metadata !327, metadata !330, metadata !333, metadata !334, metadata !337}
!287 = metadata !{i32 786445, metadata !285, metadata !"V", metadata !125, i32 163, i64 64, i64 32, i64 0, i32 0, metadata !288} ; [ DW_TAG_member ]
!288 = metadata !{i32 786434, null, metadata !"", metadata !93, i32 19, i64 64, i64 32, i32 0, i32 0, null, metadata !289, i32 0, null, null} ; [ DW_TAG_class_type ]
!289 = metadata !{metadata !290, metadata !291, metadata !292}
!290 = metadata !{i32 786445, metadata !288, metadata !"addr", metadata !93, i32 20, i64 32, i64 32, i64 0, i32 0, metadata !153} ; [ DW_TAG_member ]
!291 = metadata !{i32 786445, metadata !288, metadata !"areaID", metadata !93, i32 21, i64 16, i64 16, i64 32, i32 0, metadata !106} ; [ DW_TAG_member ]
!292 = metadata !{i32 786478, i32 0, metadata !288, metadata !"", metadata !"", metadata !"", metadata !93, i32 19, metadata !293, i1 false, i1 false, i32 0, i32 0, null, i32 320, i1 false, null, null, i32 0, metadata !111, i32 19} ; [ DW_TAG_subprogram ]
!293 = metadata !{i32 786453, i32 0, metadata !"", i32 0, i32 0, i64 0, i64 0, i64 0, i32 0, null, metadata !294, i32 0, i32 0} ; [ DW_TAG_subroutine_type ]
!294 = metadata !{null, metadata !295}
!295 = metadata !{i32 786447, i32 0, metadata !"", i32 0, i32 0, i64 64, i64 64, i64 0, i32 64, metadata !288} ; [ DW_TAG_pointer_type ]
!296 = metadata !{i32 786478, i32 0, metadata !285, metadata !"stream", metadata !"stream", metadata !"", metadata !125, i32 83, metadata !297, i1 false, i1 false, i32 0, i32 0, null, i32 256, i1 false, null, null, i32 0, metadata !111, i32 83} ; [ DW_TAG_subprogram ]
!297 = metadata !{i32 786453, i32 0, metadata !"", i32 0, i32 0, i64 0, i64 0, i64 0, i32 0, null, metadata !298, i32 0, i32 0} ; [ DW_TAG_subroutine_type ]
!298 = metadata !{null, metadata !299}
!299 = metadata !{i32 786447, i32 0, metadata !"", i32 0, i32 0, i64 64, i64 64, i64 0, i32 64, metadata !285} ; [ DW_TAG_pointer_type ]
!300 = metadata !{i32 786478, i32 0, metadata !285, metadata !"stream", metadata !"stream", metadata !"", metadata !125, i32 86, metadata !301, i1 false, i1 false, i32 0, i32 0, null, i32 256, i1 false, null, null, i32 0, metadata !111, i32 86} ; [ DW_TAG_subprogram ]
!301 = metadata !{i32 786453, i32 0, metadata !"", i32 0, i32 0, i64 0, i64 0, i64 0, i32 0, null, metadata !302, i32 0, i32 0} ; [ DW_TAG_subroutine_type ]
!302 = metadata !{null, metadata !299, metadata !137}
!303 = metadata !{i32 786478, i32 0, metadata !285, metadata !"stream", metadata !"stream", metadata !"", metadata !125, i32 91, metadata !304, i1 false, i1 false, i32 0, i32 0, null, i32 257, i1 false, null, null, i32 0, metadata !111, i32 91} ; [ DW_TAG_subprogram ]
!304 = metadata !{i32 786453, i32 0, metadata !"", i32 0, i32 0, i64 0, i64 0, i64 0, i32 0, null, metadata !305, i32 0, i32 0} ; [ DW_TAG_subroutine_type ]
!305 = metadata !{null, metadata !299, metadata !306}
!306 = metadata !{i32 786448, null, null, null, i32 0, i64 0, i64 0, i64 0, i32 0, metadata !307} ; [ DW_TAG_reference_type ]
!307 = metadata !{i32 786470, null, metadata !"", null, i32 0, i64 0, i64 0, i64 0, i32 0, metadata !285} ; [ DW_TAG_const_type ]
!308 = metadata !{i32 786478, i32 0, metadata !285, metadata !"operator=", metadata !"operator=", metadata !"_ZN3hls6streamI5PRbusEaSERKS2_", metadata !125, i32 94, metadata !309, i1 false, i1 false, i32 0, i32 0, null, i32 257, i1 false, null, null, i32 0, metadata !111, i32 94} ; [ DW_TAG_subprogram ]
!309 = metadata !{i32 786453, i32 0, metadata !"", i32 0, i32 0, i64 0, i64 0, i64 0, i32 0, null, metadata !310, i32 0, i32 0} ; [ DW_TAG_subroutine_type ]
!310 = metadata !{metadata !311, metadata !299, metadata !306}
!311 = metadata !{i32 786448, null, null, null, i32 0, i64 0, i64 0, i64 0, i32 0, metadata !285} ; [ DW_TAG_reference_type ]
!312 = metadata !{i32 786478, i32 0, metadata !285, metadata !"operator>>", metadata !"operator>>", metadata !"_ZN3hls6streamI5PRbusErsERS1_", metadata !125, i32 101, metadata !313, i1 false, i1 false, i32 0, i32 0, null, i32 256, i1 false, null, null, i32 0, metadata !111, i32 101} ; [ DW_TAG_subprogram ]
!313 = metadata !{i32 786453, i32 0, metadata !"", i32 0, i32 0, i64 0, i64 0, i64 0, i32 0, null, metadata !314, i32 0, i32 0} ; [ DW_TAG_subroutine_type ]
!314 = metadata !{null, metadata !299, metadata !315}
!315 = metadata !{i32 786448, null, null, null, i32 0, i64 0, i64 0, i64 0, i32 0, metadata !288} ; [ DW_TAG_reference_type ]
!316 = metadata !{i32 786478, i32 0, metadata !285, metadata !"operator<<", metadata !"operator<<", metadata !"_ZN3hls6streamI5PRbusElsERKS1_", metadata !125, i32 105, metadata !317, i1 false, i1 false, i32 0, i32 0, null, i32 256, i1 false, null, null, i32 0, metadata !111, i32 105} ; [ DW_TAG_subprogram ]
!317 = metadata !{i32 786453, i32 0, metadata !"", i32 0, i32 0, i64 0, i64 0, i64 0, i32 0, null, metadata !318, i32 0, i32 0} ; [ DW_TAG_subroutine_type ]
!318 = metadata !{null, metadata !299, metadata !319}
!319 = metadata !{i32 786448, null, null, null, i32 0, i64 0, i64 0, i64 0, i32 0, metadata !320} ; [ DW_TAG_reference_type ]
!320 = metadata !{i32 786470, null, metadata !"", null, i32 0, i64 0, i64 0, i64 0, i32 0, metadata !288} ; [ DW_TAG_const_type ]
!321 = metadata !{i32 786478, i32 0, metadata !285, metadata !"empty", metadata !"empty", metadata !"_ZNK3hls6streamI5PRbusE5emptyEv", metadata !125, i32 112, metadata !322, i1 false, i1 false, i32 0, i32 0, null, i32 256, i1 false, null, null, i32 0, metadata !111, i32 112} ; [ DW_TAG_subprogram ]
!322 = metadata !{i32 786453, i32 0, metadata !"", i32 0, i32 0, i64 0, i64 0, i64 0, i32 0, null, metadata !323, i32 0, i32 0} ; [ DW_TAG_subroutine_type ]
!323 = metadata !{metadata !162, metadata !324}
!324 = metadata !{i32 786447, i32 0, metadata !"", i32 0, i32 0, i64 64, i64 64, i64 0, i32 64, metadata !307} ; [ DW_TAG_pointer_type ]
!325 = metadata !{i32 786478, i32 0, metadata !285, metadata !"full", metadata !"full", metadata !"_ZNK3hls6streamI5PRbusE4fullEv", metadata !125, i32 117, metadata !322, i1 false, i1 false, i32 0, i32 0, null, i32 256, i1 false, null, null, i32 0, metadata !111, i32 117} ; [ DW_TAG_subprogram ]
!326 = metadata !{i32 786478, i32 0, metadata !285, metadata !"read", metadata !"read", metadata !"_ZN3hls6streamI5PRbusE4readERS1_", metadata !125, i32 123, metadata !313, i1 false, i1 false, i32 0, i32 0, null, i32 256, i1 false, null, null, i32 0, metadata !111, i32 123} ; [ DW_TAG_subprogram ]
!327 = metadata !{i32 786478, i32 0, metadata !285, metadata !"read", metadata !"read", metadata !"_ZN3hls6streamI5PRbusE4readEv", metadata !125, i32 129, metadata !328, i1 false, i1 false, i32 0, i32 0, null, i32 256, i1 false, null, null, i32 0, metadata !111, i32 129} ; [ DW_TAG_subprogram ]
!328 = metadata !{i32 786453, i32 0, metadata !"", i32 0, i32 0, i64 0, i64 0, i64 0, i32 0, null, metadata !329, i32 0, i32 0} ; [ DW_TAG_subroutine_type ]
!329 = metadata !{metadata !288, metadata !299}
!330 = metadata !{i32 786478, i32 0, metadata !285, metadata !"read_nb", metadata !"read_nb", metadata !"_ZN3hls6streamI5PRbusE7read_nbERS1_", metadata !125, i32 136, metadata !331, i1 false, i1 false, i32 0, i32 0, null, i32 256, i1 false, null, null, i32 0, metadata !111, i32 136} ; [ DW_TAG_subprogram ]
!331 = metadata !{i32 786453, i32 0, metadata !"", i32 0, i32 0, i64 0, i64 0, i64 0, i32 0, null, metadata !332, i32 0, i32 0} ; [ DW_TAG_subroutine_type ]
!332 = metadata !{metadata !162, metadata !299, metadata !315}
!333 = metadata !{i32 786478, i32 0, metadata !285, metadata !"write", metadata !"write", metadata !"_ZN3hls6streamI5PRbusE5writeERKS1_", metadata !125, i32 144, metadata !317, i1 false, i1 false, i32 0, i32 0, null, i32 256, i1 false, null, null, i32 0, metadata !111, i32 144} ; [ DW_TAG_subprogram ]
!334 = metadata !{i32 786478, i32 0, metadata !285, metadata !"write_nb", metadata !"write_nb", metadata !"_ZN3hls6streamI5PRbusE8write_nbERKS1_", metadata !125, i32 150, metadata !335, i1 false, i1 false, i32 0, i32 0, null, i32 256, i1 false, null, null, i32 0, metadata !111, i32 150} ; [ DW_TAG_subprogram ]
!335 = metadata !{i32 786453, i32 0, metadata !"", i32 0, i32 0, i64 0, i64 0, i64 0, i32 0, null, metadata !336, i32 0, i32 0} ; [ DW_TAG_subroutine_type ]
!336 = metadata !{metadata !162, metadata !299, metadata !319}
!337 = metadata !{i32 786478, i32 0, metadata !285, metadata !"size", metadata !"size", metadata !"_ZN3hls6streamI5PRbusE4sizeEv", metadata !125, i32 157, metadata !338, i1 false, i1 false, i32 0, i32 0, null, i32 256, i1 false, null, null, i32 0, metadata !111, i32 157} ; [ DW_TAG_subprogram ]
!338 = metadata !{i32 786453, i32 0, metadata !"", i32 0, i32 0, i64 0, i64 0, i64 0, i32 0, null, metadata !339, i32 0, i32 0} ; [ DW_TAG_subroutine_type ]
!339 = metadata !{metadata !153, metadata !299}
!340 = metadata !{metadata !341}
!341 = metadata !{i32 786479, null, metadata !"__STREAM_T__", metadata !288, null, i32 0, i32 0} ; [ DW_TAG_template_type_parameter ]
!342 = metadata !{metadata !343}
!343 = metadata !{i32 0, i32 31, metadata !344}
!344 = metadata !{metadata !345}
!345 = metadata !{metadata !"din.V", metadata !77, metadata !"unsigned int", i32 0, i32 31}
!346 = metadata !{metadata !347}
!347 = metadata !{i32 0, i32 31, metadata !348}
!348 = metadata !{metadata !349}
!349 = metadata !{metadata !"dout.V", metadata !77, metadata !"unsigned int", i32 0, i32 31}
!350 = metadata !{metadata !351}
!351 = metadata !{i32 0, i32 31, metadata !352}
!352 = metadata !{metadata !353}
!353 = metadata !{metadata !"pr.V.addr", metadata !77, metadata !"unsigned int", i32 0, i32 31}
!354 = metadata !{metadata !355}
!355 = metadata !{i32 0, i32 15, metadata !356}
!356 = metadata !{metadata !357}
!357 = metadata !{metadata !"pr.V.areaID", metadata !77, metadata !"unsigned short", i32 0, i32 15}
!358 = metadata !{metadata !359}
!359 = metadata !{i32 0, i32 0, metadata !360}
!360 = metadata !{metadata !361}
!361 = metadata !{metadata !"prDone.V", metadata !77, metadata !"bool", i32 0, i32 0}
!362 = metadata !{i32 790531, metadata !363, metadata !"din.V", null, i32 121, metadata !123, i32 0, i32 0} ; [ DW_TAG_arg_variable_field ]
!363 = metadata !{i32 786689, metadata !282, metadata !"din", metadata !262, i32 16777337, metadata !148, i32 0, i32 0} ; [ DW_TAG_arg_variable ]
!364 = metadata !{i32 121, i32 40, metadata !282, null}
!365 = metadata !{i32 790531, metadata !366, metadata !"dout.V", null, i32 122, metadata !123, i32 0, i32 0} ; [ DW_TAG_arg_variable_field ]
!366 = metadata !{i32 786689, metadata !282, metadata !"dout", metadata !262, i32 33554554, metadata !148, i32 0, i32 0} ; [ DW_TAG_arg_variable ]
!367 = metadata !{i32 122, i32 33, metadata !282, null}
!368 = metadata !{i32 790531, metadata !369, metadata !"pr.V.addr", null, i32 123, metadata !370, i32 0, i32 0} ; [ DW_TAG_arg_variable_field ]
!369 = metadata !{i32 786689, metadata !282, metadata !"pr", metadata !262, i32 50331771, metadata !311, i32 0, i32 0} ; [ DW_TAG_arg_variable ]
!370 = metadata !{i32 786438, metadata !124, metadata !"stream<PRbus>", metadata !125, i32 79, i64 32, i64 32, i32 0, i32 0, null, metadata !371, i32 0, null, metadata !340} ; [ DW_TAG_class_field_type ]
!371 = metadata !{metadata !372}
!372 = metadata !{i32 786438, null, metadata !"", metadata !93, i32 19, i64 32, i64 32, i32 0, i32 0, null, metadata !373, i32 0, null, null} ; [ DW_TAG_class_field_type ]
!373 = metadata !{metadata !290}
!374 = metadata !{i32 123, i32 26, metadata !282, null}
!375 = metadata !{i32 790531, metadata !369, metadata !"pr.V.areaID", null, i32 123, metadata !376, i32 0, i32 0} ; [ DW_TAG_arg_variable_field ]
!376 = metadata !{i32 786438, metadata !124, metadata !"stream<PRbus>", metadata !125, i32 79, i64 16, i64 32, i32 0, i32 0, null, metadata !377, i32 0, null, metadata !340} ; [ DW_TAG_class_field_type ]
!377 = metadata !{metadata !378}
!378 = metadata !{i32 786438, null, metadata !"", metadata !93, i32 19, i64 16, i64 32, i32 0, i32 0, null, metadata !379, i32 0, null, null} ; [ DW_TAG_class_field_type ]
!379 = metadata !{metadata !291}
!380 = metadata !{i32 790531, metadata !381, metadata !"prDone.V", null, i32 123, metadata !382, i32 0, i32 0} ; [ DW_TAG_arg_variable_field ]
!381 = metadata !{i32 786689, metadata !282, metadata !"prDone", metadata !262, i32 67108987, metadata !222, i32 0, i32 0} ; [ DW_TAG_arg_variable ]
!382 = metadata !{i32 786438, metadata !124, metadata !"stream<bool>", metadata !125, i32 79, i64 8, i64 8, i32 0, i32 0, null, metadata !383, i32 0, null, metadata !251} ; [ DW_TAG_class_field_type ]
!383 = metadata !{metadata !206}
!384 = metadata !{i32 123, i32 48, metadata !282, null}
!385 = metadata !{i32 152, i32 1, metadata !281, null}
!386 = metadata !{i32 790531, metadata !387, metadata !"src.V", null, i32 17, metadata !391, i32 0, i32 0} ; [ DW_TAG_arg_variable_field ]
!387 = metadata !{i32 786689, metadata !388, metadata !"src", metadata !262, i32 16777233, metadata !148, i32 0, i32 0} ; [ DW_TAG_arg_variable ]
!388 = metadata !{i32 786478, i32 0, metadata !262, metadata !"getRequestHead", metadata !"getRequestHead", metadata !"_Z14getRequestHeadRN3hls6streamIjEE", metadata !262, i32 17, metadata !389, i1 false, i1 true, i32 0, i32 0, null, i32 256, i1 false, null, null, null, metadata !111, i32 18} ; [ DW_TAG_subprogram ]
!389 = metadata !{i32 786453, i32 0, metadata !"", i32 0, i32 0, i64 0, i64 0, i64 0, i32 0, null, metadata !390, i32 0, i32 0} ; [ DW_TAG_subroutine_type ]
!390 = metadata !{null, metadata !148}
!391 = metadata !{i32 786447, null, metadata !"", null, i32 0, i64 0, i64 0, i64 0, i32 0, metadata !123} ; [ DW_TAG_pointer_type ]
!392 = metadata !{i32 17, i32 43, metadata !388, null}
!393 = metadata !{i32 786688, metadata !394, metadata !"words32", metadata !262, i32 19, metadata !395, i32 0, i32 0} ; [ DW_TAG_auto_variable ]
!394 = metadata !{i32 786443, metadata !388, i32 18, i32 1, metadata !262, i32 2} ; [ DW_TAG_lexical_block ]
!395 = metadata !{i32 786433, null, metadata !"", null, i32 0, i64 64, i64 32, i32 0, i32 0, metadata !180, metadata !396, i32 0, i32 0} ; [ DW_TAG_array_type ]
!396 = metadata !{metadata !397}
!397 = metadata !{i32 786465, i64 0, i64 1}       ; [ DW_TAG_subrange_type ]
!398 = metadata !{i32 19, i32 7, metadata !394, null}
!399 = metadata !{i32 21, i32 15, metadata !400, null}
!400 = metadata !{i32 786443, metadata !394, i32 21, i32 3, metadata !262, i32 3} ; [ DW_TAG_lexical_block ]
!401 = metadata !{i32 790531, metadata !402, metadata !"stream<unsigned int>.V", null, i32 129, metadata !405, i32 0, i32 0} ; [ DW_TAG_arg_variable_field ]
!402 = metadata !{i32 786689, metadata !403, metadata !"this", metadata !125, i32 16777345, metadata !404, i32 64, i32 0} ; [ DW_TAG_arg_variable ]
!403 = metadata !{i32 786478, i32 0, metadata !124, metadata !"read", metadata !"read", metadata !"_ZN3hls6streamIjE4readEv", metadata !125, i32 129, metadata !167, i1 false, i1 true, i32 0, i32 0, null, i32 256, i1 false, null, null, metadata !166, metadata !111, i32 129} ; [ DW_TAG_subprogram ]
!404 = metadata !{i32 786447, null, metadata !"", null, i32 0, i64 64, i64 64, i64 0, i32 0, metadata !128} ; [ DW_TAG_pointer_type ]
!405 = metadata !{i32 786447, null, metadata !"", null, i32 0, i64 64, i64 64, i64 0, i32 0, metadata !123} ; [ DW_TAG_pointer_type ]
!406 = metadata !{i32 129, i32 56, metadata !403, metadata !407}
!407 = metadata !{i32 22, i32 19, metadata !400, null}
!408 = metadata !{i32 786688, metadata !409, metadata !"tmp", metadata !125, i32 130, metadata !153, i32 0, i32 0} ; [ DW_TAG_auto_variable ]
!409 = metadata !{i32 786443, metadata !403, i32 129, i32 63, metadata !125, i32 24} ; [ DW_TAG_lexical_block ]
!410 = metadata !{i32 130, i32 22, metadata !409, metadata !407}
!411 = metadata !{i32 131, i32 9, metadata !409, metadata !407}
!412 = metadata !{i32 132, i32 9, metadata !409, metadata !407}
!413 = metadata !{i32 21, i32 26, metadata !400, null}
!414 = metadata !{i32 786688, metadata !400, metadata !"it", metadata !262, i32 21, metadata !180, i32 0, i32 0} ; [ DW_TAG_auto_variable ]
!415 = metadata !{i32 24, i32 3, metadata !394, null}
!416 = metadata !{i32 25, i32 3, metadata !394, null}
!417 = metadata !{i32 26, i32 3, metadata !394, null}
!418 = metadata !{i32 28, i32 3, metadata !394, null}
!419 = metadata !{i32 29, i32 3, metadata !394, null}
!420 = metadata !{i32 790531, metadata !421, metadata !"src.V", null, i32 6, metadata !391, i32 0, i32 0} ; [ DW_TAG_arg_variable_field ]
!421 = metadata !{i32 786689, metadata !422, metadata !"src", metadata !262, i32 16777222, metadata !148, i32 0, i32 0} ; [ DW_TAG_arg_variable ]
!422 = metadata !{i32 786478, i32 0, metadata !262, metadata !"forward", metadata !"forward", metadata !"_Z7forwardRN3hls6streamIjEEs", metadata !262, i32 6, metadata !423, i1 false, i1 true, i32 0, i32 0, null, i32 256, i1 false, null, null, null, metadata !111, i32 7} ; [ DW_TAG_subprogram ]
!423 = metadata !{i32 786453, i32 0, metadata !"", i32 0, i32 0, i64 0, i64 0, i64 0, i32 0, null, metadata !424, i32 0, i32 0} ; [ DW_TAG_subroutine_type ]
!424 = metadata !{null, metadata !148, metadata !425}
!425 = metadata !{i32 786468, null, metadata !"short", null, i32 0, i64 16, i64 16, i64 0, i32 0, i32 5} ; [ DW_TAG_base_type ]
!426 = metadata !{i32 6, i32 36, metadata !422, null}
!427 = metadata !{i32 786689, metadata !422, metadata !"size", metadata !262, i32 33554438, metadata !425, i32 0, i32 0} ; [ DW_TAG_arg_variable ]
!428 = metadata !{i32 6, i32 47, metadata !422, null}
!429 = metadata !{i32 9, i32 3, metadata !430, null}
!430 = metadata !{i32 786443, metadata !422, i32 7, i32 1, metadata !262, i32 0} ; [ DW_TAG_lexical_block ]
!431 = metadata !{i32 129, i32 56, metadata !403, metadata !432}
!432 = metadata !{i32 10, i32 5, metadata !433, null}
!433 = metadata !{i32 786443, metadata !430, i32 9, i32 20, metadata !262, i32 1} ; [ DW_TAG_lexical_block ]
!434 = metadata !{i32 130, i32 22, metadata !409, metadata !432}
!435 = metadata !{i32 131, i32 9, metadata !409, metadata !432}
!436 = metadata !{i32 132, i32 9, metadata !409, metadata !432}
!437 = metadata !{i32 11, i32 5, metadata !433, null}
!438 = metadata !{i32 786688, metadata !430, metadata !"it", metadata !262, i32 8, metadata !425, i32 0, i32 0} ; [ DW_TAG_auto_variable ]
!439 = metadata !{i32 12, i32 3, metadata !433, null}
!440 = metadata !{i32 13, i32 1, metadata !430, null}
!441 = metadata !{i32 786688, metadata !442, metadata !"tmp", metadata !125, i32 145, metadata !153, i32 0, i32 0} ; [ DW_TAG_auto_variable ]
!442 = metadata !{i32 786443, metadata !443, i32 144, i32 79, metadata !125, i32 23} ; [ DW_TAG_lexical_block ]
!443 = metadata !{i32 786478, i32 0, metadata !124, metadata !"write", metadata !"write", metadata !"_ZN3hls6streamIjE5writeERKj", metadata !125, i32 144, metadata !155, i1 false, i1 true, i32 0, i32 0, null, i32 256, i1 false, null, null, metadata !172, metadata !111, i32 144} ; [ DW_TAG_subprogram ]
!444 = metadata !{i32 145, i32 22, metadata !442, metadata !445}
!445 = metadata !{i32 41, i32 3, metadata !446, metadata !450}
!446 = metadata !{i32 786443, metadata !447, i32 37, i32 1, metadata !262, i32 4} ; [ DW_TAG_lexical_block ]
!447 = metadata !{i32 786478, i32 0, metadata !262, metadata !"buildResponse", metadata !"buildResponse", metadata !"_Z13buildResponseRN3hls6streamIjEEtth", metadata !262, i32 34, metadata !448, i1 false, i1 true, i32 0, i32 0, null, i32 256, i1 false, null, null, null, metadata !111, i32 37} ; [ DW_TAG_subprogram ]
!448 = metadata !{i32 786453, i32 0, metadata !"", i32 0, i32 0, i64 0, i64 0, i64 0, i32 0, null, metadata !449, i32 0, i32 0} ; [ DW_TAG_subroutine_type ]
!449 = metadata !{null, metadata !148, metadata !106, metadata !106, metadata !101}
!450 = metadata !{i32 130, i32 7, metadata !451, null}
!451 = metadata !{i32 786443, metadata !452, i32 129, i32 30, metadata !262, i32 14} ; [ DW_TAG_lexical_block ]
!452 = metadata !{i32 786443, metadata !281, i32 128, i32 28, metadata !262, i32 13} ; [ DW_TAG_lexical_block ]
!453 = metadata !{i32 786688, metadata !454, metadata !"tmp", metadata !125, i32 137, metadata !162, i32 0, i32 0} ; [ DW_TAG_auto_variable ]
!454 = metadata !{i32 786443, metadata !455, i32 136, i32 76, metadata !125, i32 19} ; [ DW_TAG_lexical_block ]
!455 = metadata !{i32 786478, i32 0, metadata !124, metadata !"read_nb", metadata !"read_nb", metadata !"_ZN3hls6streamIbE7read_nbERb", metadata !125, i32 136, metadata !242, i1 false, i1 true, i32 0, i32 0, null, i32 256, i1 false, null, null, metadata !241, metadata !111, i32 136} ; [ DW_TAG_subprogram ]
!456 = metadata !{i32 137, i32 22, metadata !454, metadata !457}
!457 = metadata !{i32 111, i32 3, metadata !458, metadata !462}
!458 = metadata !{i32 786443, metadata !459, i32 109, i32 1, metadata !262, i32 11} ; [ DW_TAG_lexical_block ]
!459 = metadata !{i32 786478, i32 0, metadata !262, metadata !"wrapper_status", metadata !"wrapper_status", metadata !"_Z14wrapper_statusRN3hls6streamIbEE", metadata !262, i32 108, metadata !460, i1 false, i1 true, i32 0, i32 0, null, i32 256, i1 false, null, null, null, metadata !111, i32 109} ; [ DW_TAG_subprogram ]
!460 = metadata !{i32 786453, i32 0, metadata !"", i32 0, i32 0, i64 0, i64 0, i64 0, i32 0, null, metadata !461, i32 0, i32 0} ; [ DW_TAG_subroutine_type ]
!461 = metadata !{null, metadata !222}
!462 = metadata !{i32 136, i32 2, metadata !463, null}
!463 = metadata !{i32 786443, metadata !464, i32 135, i32 32, metadata !262, i32 16} ; [ DW_TAG_lexical_block ]
!464 = metadata !{i32 786443, metadata !452, i32 134, i32 9, metadata !262, i32 15} ; [ DW_TAG_lexical_block ]
!465 = metadata !{i32 786688, metadata !466, metadata !"words32", metadata !262, i32 89, metadata !395, i32 0, i32 0} ; [ DW_TAG_auto_variable ]
!466 = metadata !{i32 786443, metadata !467, i32 88, i32 1, metadata !262, i32 9} ; [ DW_TAG_lexical_block ]
!467 = metadata !{i32 786478, i32 0, metadata !262, metadata !"readParameters_newObject", metadata !"readParameters_newObject", metadata !"_Z24readParameters_newObjectRN3hls6streamIjEE", metadata !262, i32 87, metadata !389, i1 false, i1 true, i32 0, i32 0, null, i32 256, i1 false, null, null, null, metadata !111, i32 88} ; [ DW_TAG_subprogram ]
!468 = metadata !{i32 89, i32 7, metadata !466, metadata !469}
!469 = metadata !{i32 80, i32 3, metadata !470, metadata !474}
!470 = metadata !{i32 786443, metadata !471, i32 79, i32 1, metadata !262, i32 8} ; [ DW_TAG_lexical_block ]
!471 = metadata !{i32 786478, i32 0, metadata !262, metadata !"wrapper_newObject", metadata !"wrapper_newObject", metadata !"_Z17wrapper_newObjectRN3hls6streamIjEERNS0_I5PRbusEE", metadata !262, i32 77, metadata !472, i1 false, i1 true, i32 0, i32 0, null, i32 256, i1 false, null, null, null, metadata !111, i32 79} ; [ DW_TAG_subprogram ]
!472 = metadata !{i32 786453, i32 0, metadata !"", i32 0, i32 0, i64 0, i64 0, i64 0, i32 0, null, metadata !473, i32 0, i32 0} ; [ DW_TAG_subroutine_type ]
!473 = metadata !{null, metadata !148, metadata !311}
!474 = metadata !{i32 132, i32 7, metadata !451, null}
!475 = metadata !{i32 130, i32 22, metadata !409, metadata !476}
!476 = metadata !{i32 92, i32 19, metadata !477, metadata !469}
!477 = metadata !{i32 786443, metadata !466, i32 91, i32 3, metadata !262, i32 10} ; [ DW_TAG_lexical_block ]
!478 = metadata !{i32 145, i32 22, metadata !442, metadata !479}
!479 = metadata !{i32 114, i32 3, metadata !458, metadata !462}
!480 = metadata !{i32 145, i32 22, metadata !442, metadata !481}
!481 = metadata !{i32 41, i32 3, metadata !446, metadata !482}
!482 = metadata !{i32 137, i32 2, metadata !463, null}
!483 = metadata !{i32 145, i32 22, metadata !442, metadata !484}
!484 = metadata !{i32 44, i32 5, metadata !485, metadata !482}
!485 = metadata !{i32 786443, metadata !446, i32 42, i32 31, metadata !262, i32 5} ; [ DW_TAG_lexical_block ]
!486 = metadata !{i32 145, i32 22, metadata !442, metadata !487}
!487 = metadata !{i32 41, i32 3, metadata !446, metadata !488}
!488 = metadata !{i32 149, i32 5, metadata !489, null}
!489 = metadata !{i32 786443, metadata !281, i32 147, i32 7, metadata !262, i32 18} ; [ DW_TAG_lexical_block ]
!490 = metadata !{i32 130, i32 22, metadata !409, metadata !491}
!491 = metadata !{i32 46, i32 17, metadata !485, metadata !482}
!492 = metadata !{i32 145, i32 22, metadata !442, metadata !491}
!493 = metadata !{i32 145, i32 22, metadata !442, metadata !494}
!494 = metadata !{i32 41, i32 3, metadata !446, metadata !495}
!495 = metadata !{i32 142, i32 2, metadata !496, null}
!496 = metadata !{i32 786443, metadata !464, i32 140, i32 11, metadata !262, i32 17} ; [ DW_TAG_lexical_block ]
!497 = metadata !{i32 790529, metadata !498, metadata !"tmp.addr", null, i32 145, metadata !372, i32 0, i32 0} ; [ DW_TAG_auto_variable_field ]
!498 = metadata !{i32 786688, metadata !499, metadata !"tmp", metadata !125, i32 145, metadata !288, i32 0, i32 0} ; [ DW_TAG_auto_variable ]
!499 = metadata !{i32 786443, metadata !500, i32 144, i32 79, metadata !125, i32 20} ; [ DW_TAG_lexical_block ]
!500 = metadata !{i32 786478, i32 0, metadata !124, metadata !"write", metadata !"write", metadata !"_ZN3hls6streamI5PRbusE5writeERKS1_", metadata !125, i32 144, metadata !317, i1 false, i1 true, i32 0, i32 0, null, i32 256, i1 false, null, null, metadata !333, metadata !111, i32 144} ; [ DW_TAG_subprogram ]
!501 = metadata !{i32 145, i32 22, metadata !499, metadata !502}
!502 = metadata !{i32 68, i32 3, metadata !503, metadata !507}
!503 = metadata !{i32 786443, metadata !504, i32 64, i32 1, metadata !262, i32 7} ; [ DW_TAG_lexical_block ]
!504 = metadata !{i32 786478, i32 0, metadata !262, metadata !"newObject", metadata !"newObject", metadata !"_Z9newObjectRN3hls6streamI5PRbusEEis", metadata !262, i32 63, metadata !505, i1 false, i1 true, i32 0, i32 0, null, i32 256, i1 false, null, null, null, metadata !111, i32 64} ; [ DW_TAG_subprogram ]
!505 = metadata !{i32 786453, i32 0, metadata !"", i32 0, i32 0, i64 0, i64 0, i64 0, i32 0, null, metadata !506, i32 0, i32 0} ; [ DW_TAG_subroutine_type ]
!506 = metadata !{null, metadata !311, metadata !180, metadata !425}
!507 = metadata !{i32 81, i32 3, metadata !470, metadata !474}
!508 = metadata !{i32 790529, metadata !498, metadata !"tmp.areaID", null, i32 145, metadata !378, i32 0, i32 0} ; [ DW_TAG_auto_variable_field ]
!509 = metadata !{i32 126, i32 3, metadata !281, null}
!510 = metadata !{i32 128, i32 3, metadata !281, null}
!511 = metadata !{i32 129, i32 5, metadata !452, null}
!512 = metadata !{i32 148, i32 5, metadata !489, null}
!513 = metadata !{i32 790531, metadata !514, metadata !"dst.V", null, i32 34, metadata !391, i32 0, i32 0} ; [ DW_TAG_arg_variable_field ]
!514 = metadata !{i32 786689, metadata !447, metadata !"dst", metadata !262, i32 16777250, metadata !148, i32 0, metadata !488} ; [ DW_TAG_arg_variable ]
!515 = metadata !{i32 34, i32 42, metadata !447, metadata !488}
!516 = metadata !{i32 40, i32 3, metadata !446, metadata !488}
!517 = metadata !{i32 786688, metadata !446, metadata !"words32", metadata !262, i32 38, metadata !180, i32 0, metadata !488} ; [ DW_TAG_auto_variable ]
!518 = metadata !{i32 790531, metadata !519, metadata !"stream<unsigned int>.V", null, i32 144, metadata !405, i32 0, i32 0} ; [ DW_TAG_arg_variable_field ]
!519 = metadata !{i32 786689, metadata !443, metadata !"this", metadata !125, i32 16777360, metadata !404, i32 64, metadata !487} ; [ DW_TAG_arg_variable ]
!520 = metadata !{i32 144, i32 48, metadata !443, metadata !487}
!521 = metadata !{i32 786688, metadata !442, metadata !"tmp", metadata !125, i32 145, metadata !153, i32 0, metadata !487} ; [ DW_TAG_auto_variable ]
!522 = metadata !{i32 145, i32 31, metadata !442, metadata !487}
!523 = metadata !{i32 146, i32 9, metadata !442, metadata !487}
!524 = metadata !{i32 790531, metadata !525, metadata !"dst.V", null, i32 34, metadata !391, i32 0, i32 0} ; [ DW_TAG_arg_variable_field ]
!525 = metadata !{i32 786689, metadata !447, metadata !"dst", metadata !262, i32 16777250, metadata !148, i32 0, metadata !450} ; [ DW_TAG_arg_variable ]
!526 = metadata !{i32 34, i32 42, metadata !447, metadata !450}
!527 = metadata !{i32 40, i32 3, metadata !446, metadata !450}
!528 = metadata !{i32 786688, metadata !446, metadata !"words32", metadata !262, i32 38, metadata !180, i32 0, metadata !450} ; [ DW_TAG_auto_variable ]
!529 = metadata !{i32 790531, metadata !530, metadata !"stream<unsigned int>.V", null, i32 144, metadata !405, i32 0, i32 0} ; [ DW_TAG_arg_variable_field ]
!530 = metadata !{i32 786689, metadata !443, metadata !"this", metadata !125, i32 16777360, metadata !404, i32 64, metadata !445} ; [ DW_TAG_arg_variable ]
!531 = metadata !{i32 144, i32 48, metadata !443, metadata !445}
!532 = metadata !{i32 786688, metadata !442, metadata !"tmp", metadata !125, i32 145, metadata !153, i32 0, metadata !445} ; [ DW_TAG_auto_variable ]
!533 = metadata !{i32 145, i32 31, metadata !442, metadata !445}
!534 = metadata !{i32 146, i32 9, metadata !442, metadata !445}
!535 = metadata !{i32 790531, metadata !536, metadata !"src.V", null, i32 77, metadata !391, i32 0, i32 0} ; [ DW_TAG_arg_variable_field ]
!536 = metadata !{i32 786689, metadata !471, metadata !"src", metadata !262, i32 16777293, metadata !148, i32 0, metadata !474} ; [ DW_TAG_arg_variable ]
!537 = metadata !{i32 77, i32 46, metadata !471, metadata !474}
!538 = metadata !{i32 790531, metadata !539, metadata !"pr.V.addr", null, i32 78, metadata !540, i32 0, i32 0} ; [ DW_TAG_arg_variable_field ]
!539 = metadata !{i32 786689, metadata !471, metadata !"pr", metadata !262, i32 33554510, metadata !311, i32 0, metadata !474} ; [ DW_TAG_arg_variable ]
!540 = metadata !{i32 786447, null, metadata !"", null, i32 0, i64 0, i64 0, i64 0, i32 0, metadata !370} ; [ DW_TAG_pointer_type ]
!541 = metadata !{i32 78, i32 25, metadata !471, metadata !474}
!542 = metadata !{i32 790531, metadata !539, metadata !"pr.V.areaID", null, i32 78, metadata !543, i32 0, i32 0} ; [ DW_TAG_arg_variable_field ]
!543 = metadata !{i32 786447, null, metadata !"", null, i32 0, i64 0, i64 0, i64 0, i32 0, metadata !376} ; [ DW_TAG_pointer_type ]
!544 = metadata !{i32 790531, metadata !545, metadata !"src.V", null, i32 87, metadata !391, i32 0, i32 0} ; [ DW_TAG_arg_variable_field ]
!545 = metadata !{i32 786689, metadata !467, metadata !"src", metadata !262, i32 16777303, metadata !148, i32 0, metadata !469} ; [ DW_TAG_arg_variable ]
!546 = metadata !{i32 87, i32 53, metadata !467, metadata !469}
!547 = metadata !{i32 91, i32 15, metadata !477, metadata !469}
!548 = metadata !{i32 135, i32 7, metadata !464, null}
!549 = metadata !{i32 790531, metadata !550, metadata !"prDone.V", null, i32 108, metadata !551, i32 0, i32 0} ; [ DW_TAG_arg_variable_field ]
!550 = metadata !{i32 786689, metadata !459, metadata !"prDone", metadata !262, i32 16777324, metadata !222, i32 0, metadata !462} ; [ DW_TAG_arg_variable ]
!551 = metadata !{i32 786447, null, metadata !"", null, i32 0, i64 0, i64 0, i64 0, i32 0, metadata !382} ; [ DW_TAG_pointer_type ]
!552 = metadata !{i32 108, i32 35, metadata !459, metadata !462}
!553 = metadata !{i32 790531, metadata !554, metadata !"stream<bool>.V", null, i32 136, metadata !556, i32 0, i32 0} ; [ DW_TAG_arg_variable_field ]
!554 = metadata !{i32 786689, metadata !455, metadata !"this", metadata !125, i32 16777352, metadata !555, i32 64, metadata !457} ; [ DW_TAG_arg_variable ]
!555 = metadata !{i32 786447, null, metadata !"", null, i32 0, i64 64, i64 64, i64 0, i32 0, metadata !204} ; [ DW_TAG_pointer_type ]
!556 = metadata !{i32 786447, null, metadata !"", null, i32 0, i64 64, i64 64, i64 0, i32 0, metadata !382} ; [ DW_TAG_pointer_type ]
!557 = metadata !{i32 136, i32 48, metadata !455, metadata !457}
!558 = metadata !{i32 138, i32 24, metadata !454, metadata !457}
!559 = metadata !{i32 786688, metadata !454, metadata !"empty_n", metadata !125, i32 138, metadata !162, i32 0, metadata !457} ; [ DW_TAG_auto_variable ]
!560 = metadata !{i32 786688, metadata !454, metadata !"tmp", metadata !125, i32 137, metadata !162, i32 0, metadata !457} ; [ DW_TAG_auto_variable ]
!561 = metadata !{i32 139, i32 9, metadata !454, metadata !457}
!562 = metadata !{i32 786688, metadata !458, metadata !"aux", metadata !262, i32 110, metadata !162, i32 0, metadata !457} ; [ DW_TAG_auto_variable ]
!563 = metadata !{i32 112, i32 3, metadata !458, metadata !462}
!564 = metadata !{i32 141, i32 2, metadata !496, null}
!565 = metadata !{i32 790531, metadata !566, metadata !"dst.V", null, i32 34, metadata !391, i32 0, i32 0} ; [ DW_TAG_arg_variable_field ]
!566 = metadata !{i32 786689, metadata !447, metadata !"dst", metadata !262, i32 16777250, metadata !148, i32 0, metadata !495} ; [ DW_TAG_arg_variable ]
!567 = metadata !{i32 34, i32 42, metadata !447, metadata !495}
!568 = metadata !{i32 40, i32 3, metadata !446, metadata !495}
!569 = metadata !{i32 786688, metadata !446, metadata !"words32", metadata !262, i32 38, metadata !180, i32 0, metadata !495} ; [ DW_TAG_auto_variable ]
!570 = metadata !{i32 790531, metadata !571, metadata !"stream<unsigned int>.V", null, i32 144, metadata !405, i32 0, i32 0} ; [ DW_TAG_arg_variable_field ]
!571 = metadata !{i32 786689, metadata !443, metadata !"this", metadata !125, i32 16777360, metadata !404, i32 64, metadata !494} ; [ DW_TAG_arg_variable ]
!572 = metadata !{i32 144, i32 48, metadata !443, metadata !494}
!573 = metadata !{i32 786688, metadata !442, metadata !"tmp", metadata !125, i32 145, metadata !153, i32 0, metadata !494} ; [ DW_TAG_auto_variable ]
!574 = metadata !{i32 145, i32 31, metadata !442, metadata !494}
!575 = metadata !{i32 146, i32 9, metadata !442, metadata !494}
!576 = metadata !{i32 94, i32 46, metadata !466, metadata !469}
!577 = metadata !{i32 95, i32 25, metadata !466, metadata !469}
!578 = metadata !{i32 786688, metadata !466, metadata !"ptr", metadata !262, i32 94, metadata !579, i32 0, metadata !469} ; [ DW_TAG_auto_variable ]
!579 = metadata !{i32 786447, null, metadata !"", null, i32 0, i64 64, i64 64, i64 0, i32 0, metadata !101} ; [ DW_TAG_pointer_type ]
!580 = metadata !{i32 786689, metadata !581, metadata !"c1", metadata !582, i32 16777243, metadata !101, i32 0, metadata !577} ; [ DW_TAG_arg_variable ]
!581 = metadata !{i32 786478, i32 0, metadata !582, metadata !"to_int", metadata !"to_int", metadata !"_Z6to_inthhhh", metadata !582, i32 27, metadata !583, i1 false, i1 true, i32 0, i32 0, null, i32 256, i1 false, null, null, null, metadata !111, i32 29} ; [ DW_TAG_subprogram ]
!582 = metadata !{i32 786473, metadata !"./casting.cc", metadata !"/home/julian/workspace/devel/fpga_by_example/zedboard/DPR/src/IPs/zipFactory/src/hls", null} ; [ DW_TAG_file_type ]
!583 = metadata !{i32 786453, i32 0, metadata !"", i32 0, i32 0, i64 0, i64 0, i64 0, i32 0, null, metadata !584, i32 0, i32 0} ; [ DW_TAG_subroutine_type ]
!584 = metadata !{metadata !180, metadata !101, metadata !101, metadata !101, metadata !101}
!585 = metadata !{i32 27, i32 22, metadata !581, metadata !577}
!586 = metadata !{i32 786689, metadata !581, metadata !"c2", metadata !582, i32 33554459, metadata !101, i32 0, metadata !577} ; [ DW_TAG_arg_variable ]
!587 = metadata !{i32 27, i32 40, metadata !581, metadata !577}
!588 = metadata !{i32 786689, metadata !581, metadata !"c3", metadata !582, i32 50331676, metadata !101, i32 0, metadata !577} ; [ DW_TAG_arg_variable ]
!589 = metadata !{i32 28, i32 17, metadata !581, metadata !577}
!590 = metadata !{i32 786689, metadata !581, metadata !"c4", metadata !582, i32 67108892, metadata !101, i32 0, metadata !577} ; [ DW_TAG_arg_variable ]
!591 = metadata !{i32 28, i32 35, metadata !581, metadata !577}
!592 = metadata !{i32 31, i32 3, metadata !593, metadata !577}
!593 = metadata !{i32 786443, metadata !581, i32 29, i32 1, metadata !582, i32 1} ; [ DW_TAG_lexical_block ]
!594 = metadata !{i32 786688, metadata !593, metadata !"aux", metadata !582, i32 30, metadata !180, i32 0, metadata !577} ; [ DW_TAG_auto_variable ]
!595 = metadata !{i32 96, i32 19, metadata !466, metadata !469}
!596 = metadata !{i32 97, i32 27, metadata !466, metadata !469}
!597 = metadata !{i32 786689, metadata !598, metadata !"c1", metadata !582, i32 16777235, metadata !101, i32 0, metadata !596} ; [ DW_TAG_arg_variable ]
!598 = metadata !{i32 786478, i32 0, metadata !582, metadata !"to_short", metadata !"to_short", metadata !"_Z8to_shorthh", metadata !582, i32 19, metadata !599, i1 false, i1 true, i32 0, i32 0, null, i32 256, i1 false, null, null, null, metadata !111, i32 20} ; [ DW_TAG_subprogram ]
!599 = metadata !{i32 786453, i32 0, metadata !"", i32 0, i32 0, i64 0, i64 0, i64 0, i32 0, null, metadata !600, i32 0, i32 0} ; [ DW_TAG_subroutine_type ]
!600 = metadata !{metadata !425, metadata !101, metadata !101}
!601 = metadata !{i32 19, i32 24, metadata !598, metadata !596}
!602 = metadata !{i32 786689, metadata !598, metadata !"c2", metadata !582, i32 33554451, metadata !101, i32 0, metadata !596} ; [ DW_TAG_arg_variable ]
!603 = metadata !{i32 19, i32 42, metadata !598, metadata !596}
!604 = metadata !{i32 786688, metadata !605, metadata !"aux", metadata !582, i32 21, metadata !425, i32 0, metadata !596} ; [ DW_TAG_auto_variable ]
!605 = metadata !{i32 786443, metadata !598, i32 20, i32 1, metadata !582, i32 0} ; [ DW_TAG_lexical_block ]
!606 = metadata !{i32 22, i32 3, metadata !605, metadata !596}
!607 = metadata !{i32 790531, metadata !608, metadata !"pr.V.addr", null, i32 63, metadata !540, i32 0, i32 0} ; [ DW_TAG_arg_variable_field ]
!608 = metadata !{i32 786689, metadata !504, metadata !"pr", metadata !262, i32 16777279, metadata !311, i32 0, metadata !507} ; [ DW_TAG_arg_variable ]
!609 = metadata !{i32 63, i32 31, metadata !504, metadata !507}
!610 = metadata !{i32 790531, metadata !608, metadata !"pr.V.areaID", null, i32 63, metadata !543, i32 0, i32 0} ; [ DW_TAG_arg_variable_field ]
!611 = metadata !{i32 786689, metadata !504, metadata !"addr", metadata !262, i32 33554495, metadata !180, i32 0, metadata !507} ; [ DW_TAG_arg_variable ]
!612 = metadata !{i32 63, i32 39, metadata !504, metadata !507}
!613 = metadata !{i32 786689, metadata !504, metadata !"areaID", metadata !262, i32 50331711, metadata !425, i32 0, metadata !507} ; [ DW_TAG_arg_variable ]
!614 = metadata !{i32 63, i32 51, metadata !504, metadata !507}
!615 = metadata !{i32 790529, metadata !616, metadata !"aux.areaID", null, i32 65, metadata !378, i32 0, metadata !507} ; [ DW_TAG_auto_variable_field ]
!616 = metadata !{i32 786688, metadata !503, metadata !"aux", metadata !262, i32 65, metadata !617, i32 0, i32 0} ; [ DW_TAG_auto_variable ]
!617 = metadata !{i32 786454, null, metadata !"PRbus", metadata !262, i32 22, i64 0, i64 0, i64 0, i32 0, metadata !288} ; [ DW_TAG_typedef ]
!618 = metadata !{i32 66, i32 3, metadata !503, metadata !507}
!619 = metadata !{i32 790529, metadata !616, metadata !"aux.addr", null, i32 65, metadata !372, i32 0, metadata !507} ; [ DW_TAG_auto_variable_field ]
!620 = metadata !{i32 67, i32 3, metadata !503, metadata !507}
!621 = metadata !{i32 790531, metadata !622, metadata !"stream<PRbus>.V.addr", null, i32 144, metadata !624, i32 0, i32 0} ; [ DW_TAG_arg_variable_field ]
!622 = metadata !{i32 786689, metadata !500, metadata !"this", metadata !125, i32 16777360, metadata !623, i32 64, metadata !502} ; [ DW_TAG_arg_variable ]
!623 = metadata !{i32 786447, null, metadata !"", null, i32 0, i64 64, i64 64, i64 0, i32 0, metadata !285} ; [ DW_TAG_pointer_type ]
!624 = metadata !{i32 786447, null, metadata !"", null, i32 0, i64 64, i64 64, i64 0, i32 0, metadata !370} ; [ DW_TAG_pointer_type ]
!625 = metadata !{i32 144, i32 48, metadata !500, metadata !502}
!626 = metadata !{i32 790531, metadata !622, metadata !"stream<PRbus>.V.areaID", null, i32 144, metadata !627, i32 0, i32 0} ; [ DW_TAG_arg_variable_field ]
!627 = metadata !{i32 786447, null, metadata !"", null, i32 0, i64 64, i64 64, i64 0, i32 0, metadata !376} ; [ DW_TAG_pointer_type ]
!628 = metadata !{i32 145, i32 31, metadata !499, metadata !502}
!629 = metadata !{i32 146, i32 9, metadata !499, metadata !502}
!630 = metadata !{i32 82, i32 3, metadata !470, metadata !474}
!631 = metadata !{i32 133, i32 5, metadata !451, null}
!632 = metadata !{i32 790531, metadata !633, metadata !"stream<unsigned int>.V", null, i32 129, metadata !405, i32 0, i32 0} ; [ DW_TAG_arg_variable_field ]
!633 = metadata !{i32 786689, metadata !403, metadata !"this", metadata !125, i32 16777345, metadata !404, i32 64, metadata !476} ; [ DW_TAG_arg_variable ]
!634 = metadata !{i32 129, i32 56, metadata !403, metadata !476}
!635 = metadata !{i32 131, i32 9, metadata !409, metadata !476}
!636 = metadata !{i32 786688, metadata !409, metadata !"tmp", metadata !125, i32 130, metadata !153, i32 0, metadata !476} ; [ DW_TAG_auto_variable ]
!637 = metadata !{i32 132, i32 9, metadata !409, metadata !476}
!638 = metadata !{i32 91, i32 26, metadata !477, metadata !469}
!639 = metadata !{i32 786688, metadata !477, metadata !"it", metadata !262, i32 91, metadata !180, i32 0, metadata !469} ; [ DW_TAG_auto_variable ]
!640 = metadata !{i32 113, i32 5, metadata !458, metadata !462}
!641 = metadata !{i32 786688, metadata !442, metadata !"tmp", metadata !125, i32 145, metadata !153, i32 0, metadata !479} ; [ DW_TAG_auto_variable ]
!642 = metadata !{i32 145, i32 31, metadata !442, metadata !479}
!643 = metadata !{i32 146, i32 9, metadata !442, metadata !479}
!644 = metadata !{i32 790531, metadata !645, metadata !"dst.V", null, i32 34, metadata !391, i32 0, i32 0} ; [ DW_TAG_arg_variable_field ]
!645 = metadata !{i32 786689, metadata !447, metadata !"dst", metadata !262, i32 16777250, metadata !148, i32 0, metadata !482} ; [ DW_TAG_arg_variable ]
!646 = metadata !{i32 34, i32 42, metadata !447, metadata !482}
!647 = metadata !{i32 40, i32 3, metadata !446, metadata !482}
!648 = metadata !{i32 786688, metadata !446, metadata !"words32", metadata !262, i32 38, metadata !180, i32 0, metadata !482} ; [ DW_TAG_auto_variable ]
!649 = metadata !{i32 790531, metadata !650, metadata !"stream<unsigned int>.V", null, i32 144, metadata !405, i32 0, i32 0} ; [ DW_TAG_arg_variable_field ]
!650 = metadata !{i32 786689, metadata !443, metadata !"this", metadata !125, i32 16777360, metadata !404, i32 64, metadata !481} ; [ DW_TAG_arg_variable ]
!651 = metadata !{i32 144, i32 48, metadata !443, metadata !481}
!652 = metadata !{i32 786688, metadata !442, metadata !"tmp", metadata !125, i32 145, metadata !153, i32 0, metadata !481} ; [ DW_TAG_auto_variable ]
!653 = metadata !{i32 145, i32 31, metadata !442, metadata !481}
!654 = metadata !{i32 146, i32 9, metadata !442, metadata !481}
!655 = metadata !{i32 790531, metadata !656, metadata !"stream<unsigned int>.V", null, i32 144, metadata !405, i32 0, i32 0} ; [ DW_TAG_arg_variable_field ]
!656 = metadata !{i32 786689, metadata !443, metadata !"this", metadata !125, i32 16777360, metadata !404, i32 64, metadata !484} ; [ DW_TAG_arg_variable ]
!657 = metadata !{i32 144, i32 48, metadata !443, metadata !484}
!658 = metadata !{i32 145, i32 31, metadata !442, metadata !484}
!659 = metadata !{i32 146, i32 9, metadata !442, metadata !484}
!660 = metadata !{i32 45, i32 5, metadata !485, metadata !482}
!661 = metadata !{i32 113, i32 20, metadata !662, metadata !664}
!662 = metadata !{i32 786443, metadata !663, i32 112, i32 62, metadata !125, i32 22} ; [ DW_TAG_lexical_block ]
!663 = metadata !{i32 786478, i32 0, metadata !124, metadata !"empty", metadata !"empty", metadata !"_ZNK3hls6streamIjE5emptyEv", metadata !125, i32 112, metadata !160, i1 false, i1 true, i32 0, i32 0, null, i32 256, i1 false, null, null, metadata !159, metadata !111, i32 112} ; [ DW_TAG_subprogram ]
!664 = metadata !{i32 45, i32 13, metadata !485, metadata !482}
!665 = metadata !{i32 786688, metadata !662, metadata !"tmp", metadata !125, i32 113, metadata !162, i32 0, metadata !664} ; [ DW_TAG_auto_variable ]
!666 = metadata !{i32 131, i32 9, metadata !409, metadata !491}
!667 = metadata !{i32 786688, metadata !409, metadata !"tmp", metadata !125, i32 130, metadata !153, i32 0, metadata !491} ; [ DW_TAG_auto_variable ]
!668 = metadata !{i32 132, i32 9, metadata !409, metadata !491}
!669 = metadata !{i32 790531, metadata !670, metadata !"stream<unsigned int>.V", null, i32 144, metadata !405, i32 0, i32 0} ; [ DW_TAG_arg_variable_field ]
!670 = metadata !{i32 786689, metadata !443, metadata !"this", metadata !125, i32 16777360, metadata !404, i32 64, metadata !491} ; [ DW_TAG_arg_variable ]
!671 = metadata !{i32 144, i32 48, metadata !443, metadata !491}
!672 = metadata !{i32 786688, metadata !442, metadata !"tmp", metadata !125, i32 145, metadata !153, i32 0, metadata !491} ; [ DW_TAG_auto_variable ]
!673 = metadata !{i32 145, i32 31, metadata !442, metadata !491}
!674 = metadata !{i32 146, i32 9, metadata !442, metadata !491}
!675 = metadata !{i32 146, i32 3, metadata !452, null}
